
rtarget:     file format elf64-x86-64


Disassembly of section .init:

0000000000000dc8 <_init>:
 dc8:	48 83 ec 08          	sub    $0x8,%rsp
 dcc:	48 8b 05 15 42 20 00 	mov    0x204215(%rip),%rax        # 204fe8 <__gmon_start__>
 dd3:	48 85 c0             	test   %rax,%rax
 dd6:	74 02                	je     dda <_init+0x12>
 dd8:	ff d0                	callq  *%rax
 dda:	48 83 c4 08          	add    $0x8,%rsp
 dde:	c3                   	retq   

Disassembly of section .plt:

0000000000000de0 <.plt>:
     de0:	ff 35 da 40 20 00    	pushq  0x2040da(%rip)        # 204ec0 <_GLOBAL_OFFSET_TABLE_+0x8>
     de6:	ff 25 dc 40 20 00    	jmpq   *0x2040dc(%rip)        # 204ec8 <_GLOBAL_OFFSET_TABLE_+0x10>
     dec:	0f 1f 40 00          	nopl   0x0(%rax)

0000000000000df0 <strcasecmp@plt>:
     df0:	ff 25 da 40 20 00    	jmpq   *0x2040da(%rip)        # 204ed0 <strcasecmp@GLIBC_2.2.5>
     df6:	68 00 00 00 00       	pushq  $0x0
     dfb:	e9 e0 ff ff ff       	jmpq   de0 <.plt>

0000000000000e00 <__errno_location@plt>:
     e00:	ff 25 d2 40 20 00    	jmpq   *0x2040d2(%rip)        # 204ed8 <__errno_location@GLIBC_2.2.5>
     e06:	68 01 00 00 00       	pushq  $0x1
     e0b:	e9 d0 ff ff ff       	jmpq   de0 <.plt>

0000000000000e10 <srandom@plt>:
     e10:	ff 25 ca 40 20 00    	jmpq   *0x2040ca(%rip)        # 204ee0 <srandom@GLIBC_2.2.5>
     e16:	68 02 00 00 00       	pushq  $0x2
     e1b:	e9 c0 ff ff ff       	jmpq   de0 <.plt>

0000000000000e20 <strncmp@plt>:
     e20:	ff 25 c2 40 20 00    	jmpq   *0x2040c2(%rip)        # 204ee8 <strncmp@GLIBC_2.2.5>
     e26:	68 03 00 00 00       	pushq  $0x3
     e2b:	e9 b0 ff ff ff       	jmpq   de0 <.plt>

0000000000000e30 <strcpy@plt>:
     e30:	ff 25 ba 40 20 00    	jmpq   *0x2040ba(%rip)        # 204ef0 <strcpy@GLIBC_2.2.5>
     e36:	68 04 00 00 00       	pushq  $0x4
     e3b:	e9 a0 ff ff ff       	jmpq   de0 <.plt>

0000000000000e40 <puts@plt>:
     e40:	ff 25 b2 40 20 00    	jmpq   *0x2040b2(%rip)        # 204ef8 <puts@GLIBC_2.2.5>
     e46:	68 05 00 00 00       	pushq  $0x5
     e4b:	e9 90 ff ff ff       	jmpq   de0 <.plt>

0000000000000e50 <write@plt>:
     e50:	ff 25 aa 40 20 00    	jmpq   *0x2040aa(%rip)        # 204f00 <write@GLIBC_2.2.5>
     e56:	68 06 00 00 00       	pushq  $0x6
     e5b:	e9 80 ff ff ff       	jmpq   de0 <.plt>

0000000000000e60 <__stack_chk_fail@plt>:
     e60:	ff 25 a2 40 20 00    	jmpq   *0x2040a2(%rip)        # 204f08 <__stack_chk_fail@GLIBC_2.4>
     e66:	68 07 00 00 00       	pushq  $0x7
     e6b:	e9 70 ff ff ff       	jmpq   de0 <.plt>

0000000000000e70 <mmap@plt>:
     e70:	ff 25 9a 40 20 00    	jmpq   *0x20409a(%rip)        # 204f10 <mmap@GLIBC_2.2.5>
     e76:	68 08 00 00 00       	pushq  $0x8
     e7b:	e9 60 ff ff ff       	jmpq   de0 <.plt>

0000000000000e80 <memset@plt>:
     e80:	ff 25 92 40 20 00    	jmpq   *0x204092(%rip)        # 204f18 <memset@GLIBC_2.2.5>
     e86:	68 09 00 00 00       	pushq  $0x9
     e8b:	e9 50 ff ff ff       	jmpq   de0 <.plt>

0000000000000e90 <alarm@plt>:
     e90:	ff 25 8a 40 20 00    	jmpq   *0x20408a(%rip)        # 204f20 <alarm@GLIBC_2.2.5>
     e96:	68 0a 00 00 00       	pushq  $0xa
     e9b:	e9 40 ff ff ff       	jmpq   de0 <.plt>

0000000000000ea0 <close@plt>:
     ea0:	ff 25 82 40 20 00    	jmpq   *0x204082(%rip)        # 204f28 <close@GLIBC_2.2.5>
     ea6:	68 0b 00 00 00       	pushq  $0xb
     eab:	e9 30 ff ff ff       	jmpq   de0 <.plt>

0000000000000eb0 <read@plt>:
     eb0:	ff 25 7a 40 20 00    	jmpq   *0x20407a(%rip)        # 204f30 <read@GLIBC_2.2.5>
     eb6:	68 0c 00 00 00       	pushq  $0xc
     ebb:	e9 20 ff ff ff       	jmpq   de0 <.plt>

0000000000000ec0 <signal@plt>:
     ec0:	ff 25 72 40 20 00    	jmpq   *0x204072(%rip)        # 204f38 <signal@GLIBC_2.2.5>
     ec6:	68 0d 00 00 00       	pushq  $0xd
     ecb:	e9 10 ff ff ff       	jmpq   de0 <.plt>

0000000000000ed0 <gethostbyname@plt>:
     ed0:	ff 25 6a 40 20 00    	jmpq   *0x20406a(%rip)        # 204f40 <gethostbyname@GLIBC_2.2.5>
     ed6:	68 0e 00 00 00       	pushq  $0xe
     edb:	e9 00 ff ff ff       	jmpq   de0 <.plt>

0000000000000ee0 <__memmove_chk@plt>:
     ee0:	ff 25 62 40 20 00    	jmpq   *0x204062(%rip)        # 204f48 <__memmove_chk@GLIBC_2.3.4>
     ee6:	68 0f 00 00 00       	pushq  $0xf
     eeb:	e9 f0 fe ff ff       	jmpq   de0 <.plt>

0000000000000ef0 <strtol@plt>:
     ef0:	ff 25 5a 40 20 00    	jmpq   *0x20405a(%rip)        # 204f50 <strtol@GLIBC_2.2.5>
     ef6:	68 10 00 00 00       	pushq  $0x10
     efb:	e9 e0 fe ff ff       	jmpq   de0 <.plt>

0000000000000f00 <memcpy@plt>:
     f00:	ff 25 52 40 20 00    	jmpq   *0x204052(%rip)        # 204f58 <memcpy@GLIBC_2.14>
     f06:	68 11 00 00 00       	pushq  $0x11
     f0b:	e9 d0 fe ff ff       	jmpq   de0 <.plt>

0000000000000f10 <time@plt>:
     f10:	ff 25 4a 40 20 00    	jmpq   *0x20404a(%rip)        # 204f60 <time@GLIBC_2.2.5>
     f16:	68 12 00 00 00       	pushq  $0x12
     f1b:	e9 c0 fe ff ff       	jmpq   de0 <.plt>

0000000000000f20 <random@plt>:
     f20:	ff 25 42 40 20 00    	jmpq   *0x204042(%rip)        # 204f68 <random@GLIBC_2.2.5>
     f26:	68 13 00 00 00       	pushq  $0x13
     f2b:	e9 b0 fe ff ff       	jmpq   de0 <.plt>

0000000000000f30 <_IO_getc@plt>:
     f30:	ff 25 3a 40 20 00    	jmpq   *0x20403a(%rip)        # 204f70 <_IO_getc@GLIBC_2.2.5>
     f36:	68 14 00 00 00       	pushq  $0x14
     f3b:	e9 a0 fe ff ff       	jmpq   de0 <.plt>

0000000000000f40 <__isoc99_sscanf@plt>:
     f40:	ff 25 32 40 20 00    	jmpq   *0x204032(%rip)        # 204f78 <__isoc99_sscanf@GLIBC_2.7>
     f46:	68 15 00 00 00       	pushq  $0x15
     f4b:	e9 90 fe ff ff       	jmpq   de0 <.plt>

0000000000000f50 <munmap@plt>:
     f50:	ff 25 2a 40 20 00    	jmpq   *0x20402a(%rip)        # 204f80 <munmap@GLIBC_2.2.5>
     f56:	68 16 00 00 00       	pushq  $0x16
     f5b:	e9 80 fe ff ff       	jmpq   de0 <.plt>

0000000000000f60 <__printf_chk@plt>:
     f60:	ff 25 22 40 20 00    	jmpq   *0x204022(%rip)        # 204f88 <__printf_chk@GLIBC_2.3.4>
     f66:	68 17 00 00 00       	pushq  $0x17
     f6b:	e9 70 fe ff ff       	jmpq   de0 <.plt>

0000000000000f70 <fopen@plt>:
     f70:	ff 25 1a 40 20 00    	jmpq   *0x20401a(%rip)        # 204f90 <fopen@GLIBC_2.2.5>
     f76:	68 18 00 00 00       	pushq  $0x18
     f7b:	e9 60 fe ff ff       	jmpq   de0 <.plt>

0000000000000f80 <getopt@plt>:
     f80:	ff 25 12 40 20 00    	jmpq   *0x204012(%rip)        # 204f98 <getopt@GLIBC_2.2.5>
     f86:	68 19 00 00 00       	pushq  $0x19
     f8b:	e9 50 fe ff ff       	jmpq   de0 <.plt>

0000000000000f90 <strtoul@plt>:
     f90:	ff 25 0a 40 20 00    	jmpq   *0x20400a(%rip)        # 204fa0 <strtoul@GLIBC_2.2.5>
     f96:	68 1a 00 00 00       	pushq  $0x1a
     f9b:	e9 40 fe ff ff       	jmpq   de0 <.plt>

0000000000000fa0 <gethostname@plt>:
     fa0:	ff 25 02 40 20 00    	jmpq   *0x204002(%rip)        # 204fa8 <gethostname@GLIBC_2.2.5>
     fa6:	68 1b 00 00 00       	pushq  $0x1b
     fab:	e9 30 fe ff ff       	jmpq   de0 <.plt>

0000000000000fb0 <exit@plt>:
     fb0:	ff 25 fa 3f 20 00    	jmpq   *0x203ffa(%rip)        # 204fb0 <exit@GLIBC_2.2.5>
     fb6:	68 1c 00 00 00       	pushq  $0x1c
     fbb:	e9 20 fe ff ff       	jmpq   de0 <.plt>

0000000000000fc0 <connect@plt>:
     fc0:	ff 25 f2 3f 20 00    	jmpq   *0x203ff2(%rip)        # 204fb8 <connect@GLIBC_2.2.5>
     fc6:	68 1d 00 00 00       	pushq  $0x1d
     fcb:	e9 10 fe ff ff       	jmpq   de0 <.plt>

0000000000000fd0 <__fprintf_chk@plt>:
     fd0:	ff 25 ea 3f 20 00    	jmpq   *0x203fea(%rip)        # 204fc0 <__fprintf_chk@GLIBC_2.3.4>
     fd6:	68 1e 00 00 00       	pushq  $0x1e
     fdb:	e9 00 fe ff ff       	jmpq   de0 <.plt>

0000000000000fe0 <__sprintf_chk@plt>:
     fe0:	ff 25 e2 3f 20 00    	jmpq   *0x203fe2(%rip)        # 204fc8 <__sprintf_chk@GLIBC_2.3.4>
     fe6:	68 1f 00 00 00       	pushq  $0x1f
     feb:	e9 f0 fd ff ff       	jmpq   de0 <.plt>

0000000000000ff0 <socket@plt>:
     ff0:	ff 25 da 3f 20 00    	jmpq   *0x203fda(%rip)        # 204fd0 <socket@GLIBC_2.2.5>
     ff6:	68 20 00 00 00       	pushq  $0x20
     ffb:	e9 e0 fd ff ff       	jmpq   de0 <.plt>

Disassembly of section .plt.got:

0000000000001000 <__cxa_finalize@plt>:
    1000:	ff 25 f2 3f 20 00    	jmpq   *0x203ff2(%rip)        # 204ff8 <__cxa_finalize@GLIBC_2.2.5>
    1006:	66 90                	xchg   %ax,%ax

Disassembly of section .text:

0000000000001010 <_start>:
    1010:	31 ed                	xor    %ebp,%ebp
    1012:	49 89 d1             	mov    %rdx,%r9
    1015:	5e                   	pop    %rsi
    1016:	48 89 e2             	mov    %rsp,%rdx
    1019:	48 83 e4 f0          	and    $0xfffffffffffffff0,%rsp
    101d:	50                   	push   %rax
    101e:	54                   	push   %rsp
    101f:	4c 8d 05 2a 21 00 00 	lea    0x212a(%rip),%r8        # 3150 <__libc_csu_fini>
    1026:	48 8d 0d b3 20 00 00 	lea    0x20b3(%rip),%rcx        # 30e0 <__libc_csu_init>
    102d:	48 8d 3d 20 03 00 00 	lea    0x320(%rip),%rdi        # 1354 <main>
    1034:	ff 15 a6 3f 20 00    	callq  *0x203fa6(%rip)        # 204fe0 <__libc_start_main@GLIBC_2.2.5>
    103a:	f4                   	hlt    
    103b:	0f 1f 44 00 00       	nopl   0x0(%rax,%rax,1)

0000000000001040 <deregister_tm_clones>:
    1040:	48 8d 3d 29 43 20 00 	lea    0x204329(%rip),%rdi        # 205370 <__TMC_END__>
    1047:	55                   	push   %rbp
    1048:	48 8d 05 21 43 20 00 	lea    0x204321(%rip),%rax        # 205370 <__TMC_END__>
    104f:	48 39 f8             	cmp    %rdi,%rax
    1052:	48 89 e5             	mov    %rsp,%rbp
    1055:	74 19                	je     1070 <deregister_tm_clones+0x30>
    1057:	48 8b 05 7a 3f 20 00 	mov    0x203f7a(%rip),%rax        # 204fd8 <_ITM_deregisterTMCloneTable>
    105e:	48 85 c0             	test   %rax,%rax
    1061:	74 0d                	je     1070 <deregister_tm_clones+0x30>
    1063:	5d                   	pop    %rbp
    1064:	ff e0                	jmpq   *%rax
    1066:	66 2e 0f 1f 84 00 00 	nopw   %cs:0x0(%rax,%rax,1)
    106d:	00 00 00 
    1070:	5d                   	pop    %rbp
    1071:	c3                   	retq   
    1072:	0f 1f 40 00          	nopl   0x0(%rax)
    1076:	66 2e 0f 1f 84 00 00 	nopw   %cs:0x0(%rax,%rax,1)
    107d:	00 00 00 

0000000000001080 <register_tm_clones>:
    1080:	48 8d 3d e9 42 20 00 	lea    0x2042e9(%rip),%rdi        # 205370 <__TMC_END__>
    1087:	48 8d 35 e2 42 20 00 	lea    0x2042e2(%rip),%rsi        # 205370 <__TMC_END__>
    108e:	55                   	push   %rbp
    108f:	48 29 fe             	sub    %rdi,%rsi
    1092:	48 89 e5             	mov    %rsp,%rbp
    1095:	48 c1 fe 03          	sar    $0x3,%rsi
    1099:	48 89 f0             	mov    %rsi,%rax
    109c:	48 c1 e8 3f          	shr    $0x3f,%rax
    10a0:	48 01 c6             	add    %rax,%rsi
    10a3:	48 d1 fe             	sar    %rsi
    10a6:	74 18                	je     10c0 <register_tm_clones+0x40>
    10a8:	48 8b 05 41 3f 20 00 	mov    0x203f41(%rip),%rax        # 204ff0 <_ITM_registerTMCloneTable>
    10af:	48 85 c0             	test   %rax,%rax
    10b2:	74 0c                	je     10c0 <register_tm_clones+0x40>
    10b4:	5d                   	pop    %rbp
    10b5:	ff e0                	jmpq   *%rax
    10b7:	66 0f 1f 84 00 00 00 	nopw   0x0(%rax,%rax,1)
    10be:	00 00 
    10c0:	5d                   	pop    %rbp
    10c1:	c3                   	retq   
    10c2:	0f 1f 40 00          	nopl   0x0(%rax)
    10c6:	66 2e 0f 1f 84 00 00 	nopw   %cs:0x0(%rax,%rax,1)
    10cd:	00 00 00 

00000000000010d0 <__do_global_dtors_aux>:
    10d0:	80 3d d1 42 20 00 00 	cmpb   $0x0,0x2042d1(%rip)        # 2053a8 <completed.7697>
    10d7:	75 2f                	jne    1108 <__do_global_dtors_aux+0x38>
    10d9:	48 83 3d 17 3f 20 00 	cmpq   $0x0,0x203f17(%rip)        # 204ff8 <__cxa_finalize@GLIBC_2.2.5>
    10e0:	00 
    10e1:	55                   	push   %rbp
    10e2:	48 89 e5             	mov    %rsp,%rbp
    10e5:	74 0c                	je     10f3 <__do_global_dtors_aux+0x23>
    10e7:	48 8b 3d 1a 3f 20 00 	mov    0x203f1a(%rip),%rdi        # 205008 <__dso_handle>
    10ee:	e8 0d ff ff ff       	callq  1000 <__cxa_finalize@plt>
    10f3:	e8 48 ff ff ff       	callq  1040 <deregister_tm_clones>
    10f8:	c6 05 a9 42 20 00 01 	movb   $0x1,0x2042a9(%rip)        # 2053a8 <completed.7697>
    10ff:	5d                   	pop    %rbp
    1100:	c3                   	retq   
    1101:	0f 1f 80 00 00 00 00 	nopl   0x0(%rax)
    1108:	f3 c3                	repz retq 
    110a:	66 0f 1f 44 00 00    	nopw   0x0(%rax,%rax,1)

0000000000001110 <frame_dummy>:
    1110:	55                   	push   %rbp
    1111:	48 89 e5             	mov    %rsp,%rbp
    1114:	5d                   	pop    %rbp
    1115:	e9 66 ff ff ff       	jmpq   1080 <register_tm_clones>

000000000000111a <usage>:
    111a:	48 83 ec 08          	sub    $0x8,%rsp
    111e:	48 89 fa             	mov    %rdi,%rdx
    1121:	83 3d c0 42 20 00 00 	cmpl   $0x0,0x2042c0(%rip)        # 2053e8 <is_checker>
    1128:	74 50                	je     117a <usage+0x60>
    112a:	48 8d 35 37 20 00 00 	lea    0x2037(%rip),%rsi        # 3168 <_IO_stdin_used+0x8>
    1131:	bf 01 00 00 00       	mov    $0x1,%edi
    1136:	b8 00 00 00 00       	mov    $0x0,%eax
    113b:	e8 20 fe ff ff       	callq  f60 <__printf_chk@plt>
    1140:	48 8d 3d 59 20 00 00 	lea    0x2059(%rip),%rdi        # 31a0 <_IO_stdin_used+0x40>
    1147:	e8 f4 fc ff ff       	callq  e40 <puts@plt>
    114c:	48 8d 3d c5 21 00 00 	lea    0x21c5(%rip),%rdi        # 3318 <_IO_stdin_used+0x1b8>
    1153:	e8 e8 fc ff ff       	callq  e40 <puts@plt>
    1158:	48 8d 3d 69 20 00 00 	lea    0x2069(%rip),%rdi        # 31c8 <_IO_stdin_used+0x68>
    115f:	e8 dc fc ff ff       	callq  e40 <puts@plt>
    1164:	48 8d 3d c7 21 00 00 	lea    0x21c7(%rip),%rdi        # 3332 <_IO_stdin_used+0x1d2>
    116b:	e8 d0 fc ff ff       	callq  e40 <puts@plt>
    1170:	bf 00 00 00 00       	mov    $0x0,%edi
    1175:	e8 36 fe ff ff       	callq  fb0 <exit@plt>
    117a:	48 8d 35 cd 21 00 00 	lea    0x21cd(%rip),%rsi        # 334e <_IO_stdin_used+0x1ee>
    1181:	bf 01 00 00 00       	mov    $0x1,%edi
    1186:	b8 00 00 00 00       	mov    $0x0,%eax
    118b:	e8 d0 fd ff ff       	callq  f60 <__printf_chk@plt>
    1190:	48 8d 3d 59 20 00 00 	lea    0x2059(%rip),%rdi        # 31f0 <_IO_stdin_used+0x90>
    1197:	e8 a4 fc ff ff       	callq  e40 <puts@plt>
    119c:	48 8d 3d 75 20 00 00 	lea    0x2075(%rip),%rdi        # 3218 <_IO_stdin_used+0xb8>
    11a3:	e8 98 fc ff ff       	callq  e40 <puts@plt>
    11a8:	48 8d 3d bd 21 00 00 	lea    0x21bd(%rip),%rdi        # 336c <_IO_stdin_used+0x20c>
    11af:	e8 8c fc ff ff       	callq  e40 <puts@plt>
    11b4:	eb ba                	jmp    1170 <usage+0x56>

00000000000011b6 <initialize_target>:
    11b6:	55                   	push   %rbp
    11b7:	53                   	push   %rbx
    11b8:	48 81 ec 18 21 00 00 	sub    $0x2118,%rsp
    11bf:	89 f5                	mov    %esi,%ebp
    11c1:	64 48 8b 04 25 28 00 	mov    %fs:0x28,%rax
    11c8:	00 00 
    11ca:	48 89 84 24 08 21 00 	mov    %rax,0x2108(%rsp)
    11d1:	00 
    11d2:	31 c0                	xor    %eax,%eax
    11d4:	89 3d fe 41 20 00    	mov    %edi,0x2041fe(%rip)        # 2053d8 <check_level>
    11da:	8b 3d 30 3e 20 00    	mov    0x203e30(%rip),%edi        # 205010 <target_id>
    11e0:	e8 d3 1e 00 00       	callq  30b8 <gencookie>
    11e5:	89 05 f9 41 20 00    	mov    %eax,0x2041f9(%rip)        # 2053e4 <cookie>
    11eb:	89 c7                	mov    %eax,%edi
    11ed:	e8 c6 1e 00 00       	callq  30b8 <gencookie>
    11f2:	89 05 e8 41 20 00    	mov    %eax,0x2041e8(%rip)        # 2053e0 <authkey>
    11f8:	8b 05 12 3e 20 00    	mov    0x203e12(%rip),%eax        # 205010 <target_id>
    11fe:	8d 78 01             	lea    0x1(%rax),%edi
    1201:	e8 0a fc ff ff       	callq  e10 <srandom@plt>
    1206:	e8 15 fd ff ff       	callq  f20 <random@plt>
    120b:	89 c7                	mov    %eax,%edi
    120d:	e8 2d 03 00 00       	callq  153f <scramble>
    1212:	89 c3                	mov    %eax,%ebx
    1214:	85 ed                	test   %ebp,%ebp
    1216:	75 54                	jne    126c <initialize_target+0xb6>
    1218:	b8 00 00 00 00       	mov    $0x0,%eax
    121d:	01 d8                	add    %ebx,%eax
    121f:	0f b7 c0             	movzwl %ax,%eax
    1222:	8d 04 c5 00 01 00 00 	lea    0x100(,%rax,8),%eax
    1229:	89 c0                	mov    %eax,%eax
    122b:	48 89 05 2e 41 20 00 	mov    %rax,0x20412e(%rip)        # 205360 <buf_offset>
    1232:	c6 05 cf 4d 20 00 72 	movb   $0x72,0x204dcf(%rip)        # 206008 <target_prefix>
    1239:	83 3d 28 41 20 00 00 	cmpl   $0x0,0x204128(%rip)        # 205368 <notify>
    1240:	74 09                	je     124b <initialize_target+0x95>
    1242:	83 3d 9f 41 20 00 00 	cmpl   $0x0,0x20419f(%rip)        # 2053e8 <is_checker>
    1249:	74 39                	je     1284 <initialize_target+0xce>
    124b:	48 8b 84 24 08 21 00 	mov    0x2108(%rsp),%rax
    1252:	00 
    1253:	64 48 33 04 25 28 00 	xor    %fs:0x28,%rax
    125a:	00 00 
    125c:	0f 85 ed 00 00 00    	jne    134f <initialize_target+0x199>
    1262:	48 81 c4 18 21 00 00 	add    $0x2118,%rsp
    1269:	5b                   	pop    %rbx
    126a:	5d                   	pop    %rbp
    126b:	c3                   	retq   
    126c:	bf 00 00 00 00       	mov    $0x0,%edi
    1271:	e8 9a fc ff ff       	callq  f10 <time@plt>
    1276:	89 c7                	mov    %eax,%edi
    1278:	e8 93 fb ff ff       	callq  e10 <srandom@plt>
    127d:	e8 9e fc ff ff       	callq  f20 <random@plt>
    1282:	eb 99                	jmp    121d <initialize_target+0x67>
    1284:	48 89 e7             	mov    %rsp,%rdi
    1287:	be 00 01 00 00       	mov    $0x100,%esi
    128c:	e8 0f fd ff ff       	callq  fa0 <gethostname@plt>
    1291:	89 c5                	mov    %eax,%ebp
    1293:	85 c0                	test   %eax,%eax
    1295:	75 26                	jne    12bd <initialize_target+0x107>
    1297:	89 c3                	mov    %eax,%ebx
    1299:	48 63 c3             	movslq %ebx,%rax
    129c:	48 8d 15 9d 3d 20 00 	lea    0x203d9d(%rip),%rdx        # 205040 <host_table>
    12a3:	48 8b 3c c2          	mov    (%rdx,%rax,8),%rdi
    12a7:	48 85 ff             	test   %rdi,%rdi
    12aa:	74 2c                	je     12d8 <initialize_target+0x122>
    12ac:	48 89 e6             	mov    %rsp,%rsi
    12af:	e8 3c fb ff ff       	callq  df0 <strcasecmp@plt>
    12b4:	85 c0                	test   %eax,%eax
    12b6:	74 1b                	je     12d3 <initialize_target+0x11d>
    12b8:	83 c3 01             	add    $0x1,%ebx
    12bb:	eb dc                	jmp    1299 <initialize_target+0xe3>
    12bd:	48 8d 3d 84 1f 00 00 	lea    0x1f84(%rip),%rdi        # 3248 <_IO_stdin_used+0xe8>
    12c4:	e8 77 fb ff ff       	callq  e40 <puts@plt>
    12c9:	bf 08 00 00 00       	mov    $0x8,%edi
    12ce:	e8 dd fc ff ff       	callq  fb0 <exit@plt>
    12d3:	bd 01 00 00 00       	mov    $0x1,%ebp
    12d8:	48 89 e7             	mov    %rsp,%rdi
    12db:	48 8b 35 3e 3d 20 00 	mov    0x203d3e(%rip),%rsi        # 205020 <user_id>
    12e2:	e8 09 fb ff ff       	callq  df0 <strcasecmp@plt>
    12e7:	85 c0                	test   %eax,%eax
    12e9:	74 04                	je     12ef <initialize_target+0x139>
    12eb:	85 ed                	test   %ebp,%ebp
    12ed:	74 3d                	je     132c <initialize_target+0x176>
    12ef:	48 8d bc 24 00 01 00 	lea    0x100(%rsp),%rdi
    12f6:	00 
    12f7:	e8 ec 1a 00 00       	callq  2de8 <init_driver>
    12fc:	85 c0                	test   %eax,%eax
    12fe:	0f 89 47 ff ff ff    	jns    124b <initialize_target+0x95>
    1304:	48 8d 94 24 00 01 00 	lea    0x100(%rsp),%rdx
    130b:	00 
    130c:	48 8d 35 ad 1f 00 00 	lea    0x1fad(%rip),%rsi        # 32c0 <_IO_stdin_used+0x160>
    1313:	bf 01 00 00 00       	mov    $0x1,%edi
    1318:	b8 00 00 00 00       	mov    $0x0,%eax
    131d:	e8 3e fc ff ff       	callq  f60 <__printf_chk@plt>
    1322:	bf 08 00 00 00       	mov    $0x8,%edi
    1327:	e8 84 fc ff ff       	callq  fb0 <exit@plt>
    132c:	48 89 e2             	mov    %rsp,%rdx
    132f:	48 8d 35 4a 1f 00 00 	lea    0x1f4a(%rip),%rsi        # 3280 <_IO_stdin_used+0x120>
    1336:	bf 01 00 00 00       	mov    $0x1,%edi
    133b:	b8 00 00 00 00       	mov    $0x0,%eax
    1340:	e8 1b fc ff ff       	callq  f60 <__printf_chk@plt>
    1345:	bf 08 00 00 00       	mov    $0x8,%edi
    134a:	e8 61 fc ff ff       	callq  fb0 <exit@plt>
    134f:	e8 0c fb ff ff       	callq  e60 <__stack_chk_fail@plt>

0000000000001354 <main>:
    1354:	41 56                	push   %r14
    1356:	41 55                	push   %r13
    1358:	41 54                	push   %r12
    135a:	55                   	push   %rbp
    135b:	53                   	push   %rbx
    135c:	41 89 fc             	mov    %edi,%r12d
    135f:	48 89 f3             	mov    %rsi,%rbx
    1362:	48 8d 35 86 0d 00 00 	lea    0xd86(%rip),%rsi        # 20ef <seghandler>
    1369:	bf 0b 00 00 00       	mov    $0xb,%edi
    136e:	e8 4d fb ff ff       	callq  ec0 <signal@plt>
    1373:	48 8d 35 21 0d 00 00 	lea    0xd21(%rip),%rsi        # 209b <bushandler>
    137a:	bf 07 00 00 00       	mov    $0x7,%edi
    137f:	e8 3c fb ff ff       	callq  ec0 <signal@plt>
    1384:	48 8d 35 b8 0d 00 00 	lea    0xdb8(%rip),%rsi        # 2143 <illegalhandler>
    138b:	bf 04 00 00 00       	mov    $0x4,%edi
    1390:	e8 2b fb ff ff       	callq  ec0 <signal@plt>
    1395:	83 3d 4c 40 20 00 00 	cmpl   $0x0,0x20404c(%rip)        # 2053e8 <is_checker>
    139c:	75 26                	jne    13c4 <main+0x70>
    139e:	48 8d 2d e0 1f 00 00 	lea    0x1fe0(%rip),%rbp        # 3385 <_IO_stdin_used+0x225>
    13a5:	48 8b 05 d4 3f 20 00 	mov    0x203fd4(%rip),%rax        # 205380 <stdin@@GLIBC_2.2.5>
    13ac:	48 89 05 1d 40 20 00 	mov    %rax,0x20401d(%rip)        # 2053d0 <infile>
    13b3:	41 bd 00 00 00 00    	mov    $0x0,%r13d
    13b9:	41 be 00 00 00 00    	mov    $0x0,%r14d
    13bf:	e9 8d 00 00 00       	jmpq   1451 <main+0xfd>
    13c4:	48 8d 35 cc 0d 00 00 	lea    0xdcc(%rip),%rsi        # 2197 <sigalrmhandler>
    13cb:	bf 0e 00 00 00       	mov    $0xe,%edi
    13d0:	e8 eb fa ff ff       	callq  ec0 <signal@plt>
    13d5:	bf 05 00 00 00       	mov    $0x5,%edi
    13da:	e8 b1 fa ff ff       	callq  e90 <alarm@plt>
    13df:	48 8d 2d a4 1f 00 00 	lea    0x1fa4(%rip),%rbp        # 338a <_IO_stdin_used+0x22a>
    13e6:	eb bd                	jmp    13a5 <main+0x51>
    13e8:	48 8b 3b             	mov    (%rbx),%rdi
    13eb:	e8 2a fd ff ff       	callq  111a <usage>
    13f0:	48 8d 35 f6 21 00 00 	lea    0x21f6(%rip),%rsi        # 35ed <_IO_stdin_used+0x48d>
    13f7:	48 8b 3d 8a 3f 20 00 	mov    0x203f8a(%rip),%rdi        # 205388 <optarg@@GLIBC_2.2.5>
    13fe:	e8 6d fb ff ff       	callq  f70 <fopen@plt>
    1403:	48 89 05 c6 3f 20 00 	mov    %rax,0x203fc6(%rip)        # 2053d0 <infile>
    140a:	48 85 c0             	test   %rax,%rax
    140d:	75 42                	jne    1451 <main+0xfd>
    140f:	48 8b 0d 72 3f 20 00 	mov    0x203f72(%rip),%rcx        # 205388 <optarg@@GLIBC_2.2.5>
    1416:	48 8d 15 75 1f 00 00 	lea    0x1f75(%rip),%rdx        # 3392 <_IO_stdin_used+0x232>
    141d:	be 01 00 00 00       	mov    $0x1,%esi
    1422:	48 8b 3d 77 3f 20 00 	mov    0x203f77(%rip),%rdi        # 2053a0 <stderr@@GLIBC_2.2.5>
    1429:	e8 a2 fb ff ff       	callq  fd0 <__fprintf_chk@plt>
    142e:	b8 01 00 00 00       	mov    $0x1,%eax
    1433:	e9 d9 00 00 00       	jmpq   1511 <main+0x1bd>
    1438:	ba 10 00 00 00       	mov    $0x10,%edx
    143d:	be 00 00 00 00       	mov    $0x0,%esi
    1442:	48 8b 3d 3f 3f 20 00 	mov    0x203f3f(%rip),%rdi        # 205388 <optarg@@GLIBC_2.2.5>
    1449:	e8 42 fb ff ff       	callq  f90 <strtoul@plt>
    144e:	41 89 c6             	mov    %eax,%r14d
    1451:	48 89 ea             	mov    %rbp,%rdx
    1454:	48 89 de             	mov    %rbx,%rsi
    1457:	44 89 e7             	mov    %r12d,%edi
    145a:	e8 21 fb ff ff       	callq  f80 <getopt@plt>
    145f:	3c ff                	cmp    $0xff,%al
    1461:	74 62                	je     14c5 <main+0x171>
    1463:	0f be d0             	movsbl %al,%edx
    1466:	83 e8 61             	sub    $0x61,%eax
    1469:	3c 10                	cmp    $0x10,%al
    146b:	77 3a                	ja     14a7 <main+0x153>
    146d:	0f b6 c0             	movzbl %al,%eax
    1470:	48 8d 0d 59 1f 00 00 	lea    0x1f59(%rip),%rcx        # 33d0 <_IO_stdin_used+0x270>
    1477:	48 63 04 81          	movslq (%rcx,%rax,4),%rax
    147b:	48 01 c8             	add    %rcx,%rax
    147e:	ff e0                	jmpq   *%rax
    1480:	ba 0a 00 00 00       	mov    $0xa,%edx
    1485:	be 00 00 00 00       	mov    $0x0,%esi
    148a:	48 8b 3d f7 3e 20 00 	mov    0x203ef7(%rip),%rdi        # 205388 <optarg@@GLIBC_2.2.5>
    1491:	e8 5a fa ff ff       	callq  ef0 <strtol@plt>
    1496:	41 89 c5             	mov    %eax,%r13d
    1499:	eb b6                	jmp    1451 <main+0xfd>
    149b:	c7 05 c3 3e 20 00 00 	movl   $0x0,0x203ec3(%rip)        # 205368 <notify>
    14a2:	00 00 00 
    14a5:	eb aa                	jmp    1451 <main+0xfd>
    14a7:	48 8d 35 01 1f 00 00 	lea    0x1f01(%rip),%rsi        # 33af <_IO_stdin_used+0x24f>
    14ae:	bf 01 00 00 00       	mov    $0x1,%edi
    14b3:	b8 00 00 00 00       	mov    $0x0,%eax
    14b8:	e8 a3 fa ff ff       	callq  f60 <__printf_chk@plt>
    14bd:	48 8b 3b             	mov    (%rbx),%rdi
    14c0:	e8 55 fc ff ff       	callq  111a <usage>
    14c5:	be 01 00 00 00       	mov    $0x1,%esi
    14ca:	44 89 ef             	mov    %r13d,%edi
    14cd:	e8 e4 fc ff ff       	callq  11b6 <initialize_target>
    14d2:	83 3d 0f 3f 20 00 00 	cmpl   $0x0,0x203f0f(%rip)        # 2053e8 <is_checker>
    14d9:	74 09                	je     14e4 <main+0x190>
    14db:	44 39 35 fe 3e 20 00 	cmp    %r14d,0x203efe(%rip)        # 2053e0 <authkey>
    14e2:	75 36                	jne    151a <main+0x1c6>
    14e4:	8b 15 fa 3e 20 00    	mov    0x203efa(%rip),%edx        # 2053e4 <cookie>
    14ea:	48 8d 35 d1 1e 00 00 	lea    0x1ed1(%rip),%rsi        # 33c2 <_IO_stdin_used+0x262>
    14f1:	bf 01 00 00 00       	mov    $0x1,%edi
    14f6:	b8 00 00 00 00       	mov    $0x0,%eax
    14fb:	e8 60 fa ff ff       	callq  f60 <__printf_chk@plt>
    1500:	48 8b 3d 59 3e 20 00 	mov    0x203e59(%rip),%rdi        # 205360 <buf_offset>
    1507:	e8 e2 0c 00 00       	callq  21ee <launch>
    150c:	b8 00 00 00 00       	mov    $0x0,%eax
    1511:	5b                   	pop    %rbx
    1512:	5d                   	pop    %rbp
    1513:	41 5c                	pop    %r12
    1515:	41 5d                	pop    %r13
    1517:	41 5e                	pop    %r14
    1519:	c3                   	retq   
    151a:	44 89 f2             	mov    %r14d,%edx
    151d:	48 8d 35 c4 1d 00 00 	lea    0x1dc4(%rip),%rsi        # 32e8 <_IO_stdin_used+0x188>
    1524:	bf 01 00 00 00       	mov    $0x1,%edi
    1529:	b8 00 00 00 00       	mov    $0x0,%eax
    152e:	e8 2d fa ff ff       	callq  f60 <__printf_chk@plt>
    1533:	b8 00 00 00 00       	mov    $0x0,%eax
    1538:	e8 be 07 00 00       	callq  1cfb <check_fail>
    153d:	eb a5                	jmp    14e4 <main+0x190>

000000000000153f <scramble>:
    153f:	48 83 ec 38          	sub    $0x38,%rsp
    1543:	64 48 8b 04 25 28 00 	mov    %fs:0x28,%rax
    154a:	00 00 
    154c:	48 89 44 24 28       	mov    %rax,0x28(%rsp)
    1551:	31 c0                	xor    %eax,%eax
    1553:	eb 10                	jmp    1565 <scramble+0x26>
    1555:	69 d0 e7 4d 00 00    	imul   $0x4de7,%eax,%edx
    155b:	01 fa                	add    %edi,%edx
    155d:	89 c1                	mov    %eax,%ecx
    155f:	89 14 8c             	mov    %edx,(%rsp,%rcx,4)
    1562:	83 c0 01             	add    $0x1,%eax
    1565:	83 f8 09             	cmp    $0x9,%eax
    1568:	76 eb                	jbe    1555 <scramble+0x16>
    156a:	8b 44 24 20          	mov    0x20(%rsp),%eax
    156e:	69 c0 0b 1d 00 00    	imul   $0x1d0b,%eax,%eax
    1574:	89 44 24 20          	mov    %eax,0x20(%rsp)
    1578:	8b 44 24 08          	mov    0x8(%rsp),%eax
    157c:	69 c0 d6 41 00 00    	imul   $0x41d6,%eax,%eax
    1582:	89 44 24 08          	mov    %eax,0x8(%rsp)
    1586:	8b 04 24             	mov    (%rsp),%eax
    1589:	69 c0 9b 87 00 00    	imul   $0x879b,%eax,%eax
    158f:	89 04 24             	mov    %eax,(%rsp)
    1592:	8b 44 24 18          	mov    0x18(%rsp),%eax
    1596:	69 c0 e5 8a 00 00    	imul   $0x8ae5,%eax,%eax
    159c:	89 44 24 18          	mov    %eax,0x18(%rsp)
    15a0:	8b 44 24 10          	mov    0x10(%rsp),%eax
    15a4:	69 c0 18 a7 00 00    	imul   $0xa718,%eax,%eax
    15aa:	89 44 24 10          	mov    %eax,0x10(%rsp)
    15ae:	8b 44 24 08          	mov    0x8(%rsp),%eax
    15b2:	69 c0 a4 e7 00 00    	imul   $0xe7a4,%eax,%eax
    15b8:	89 44 24 08          	mov    %eax,0x8(%rsp)
    15bc:	8b 44 24 04          	mov    0x4(%rsp),%eax
    15c0:	69 c0 98 f3 00 00    	imul   $0xf398,%eax,%eax
    15c6:	89 44 24 04          	mov    %eax,0x4(%rsp)
    15ca:	8b 44 24 10          	mov    0x10(%rsp),%eax
    15ce:	69 c0 0b 70 00 00    	imul   $0x700b,%eax,%eax
    15d4:	89 44 24 10          	mov    %eax,0x10(%rsp)
    15d8:	8b 44 24 04          	mov    0x4(%rsp),%eax
    15dc:	69 c0 61 3e 00 00    	imul   $0x3e61,%eax,%eax
    15e2:	89 44 24 04          	mov    %eax,0x4(%rsp)
    15e6:	8b 44 24 10          	mov    0x10(%rsp),%eax
    15ea:	69 c0 11 26 00 00    	imul   $0x2611,%eax,%eax
    15f0:	89 44 24 10          	mov    %eax,0x10(%rsp)
    15f4:	8b 44 24 10          	mov    0x10(%rsp),%eax
    15f8:	69 c0 3b e5 00 00    	imul   $0xe53b,%eax,%eax
    15fe:	89 44 24 10          	mov    %eax,0x10(%rsp)
    1602:	8b 44 24 0c          	mov    0xc(%rsp),%eax
    1606:	69 c0 3b 26 00 00    	imul   $0x263b,%eax,%eax
    160c:	89 44 24 0c          	mov    %eax,0xc(%rsp)
    1610:	8b 44 24 0c          	mov    0xc(%rsp),%eax
    1614:	69 c0 8b 03 00 00    	imul   $0x38b,%eax,%eax
    161a:	89 44 24 0c          	mov    %eax,0xc(%rsp)
    161e:	8b 44 24 24          	mov    0x24(%rsp),%eax
    1622:	69 c0 d5 b3 00 00    	imul   $0xb3d5,%eax,%eax
    1628:	89 44 24 24          	mov    %eax,0x24(%rsp)
    162c:	8b 44 24 0c          	mov    0xc(%rsp),%eax
    1630:	69 c0 6f f3 00 00    	imul   $0xf36f,%eax,%eax
    1636:	89 44 24 0c          	mov    %eax,0xc(%rsp)
    163a:	8b 44 24 20          	mov    0x20(%rsp),%eax
    163e:	69 c0 31 19 00 00    	imul   $0x1931,%eax,%eax
    1644:	89 44 24 20          	mov    %eax,0x20(%rsp)
    1648:	8b 44 24 04          	mov    0x4(%rsp),%eax
    164c:	69 c0 f7 fa 00 00    	imul   $0xfaf7,%eax,%eax
    1652:	89 44 24 04          	mov    %eax,0x4(%rsp)
    1656:	8b 44 24 20          	mov    0x20(%rsp),%eax
    165a:	69 c0 3f 8b 00 00    	imul   $0x8b3f,%eax,%eax
    1660:	89 44 24 20          	mov    %eax,0x20(%rsp)
    1664:	8b 44 24 10          	mov    0x10(%rsp),%eax
    1668:	69 c0 68 86 00 00    	imul   $0x8668,%eax,%eax
    166e:	89 44 24 10          	mov    %eax,0x10(%rsp)
    1672:	8b 44 24 08          	mov    0x8(%rsp),%eax
    1676:	69 c0 c6 e2 00 00    	imul   $0xe2c6,%eax,%eax
    167c:	89 44 24 08          	mov    %eax,0x8(%rsp)
    1680:	8b 04 24             	mov    (%rsp),%eax
    1683:	69 c0 7f bd 00 00    	imul   $0xbd7f,%eax,%eax
    1689:	89 04 24             	mov    %eax,(%rsp)
    168c:	8b 44 24 14          	mov    0x14(%rsp),%eax
    1690:	69 c0 ae 98 00 00    	imul   $0x98ae,%eax,%eax
    1696:	89 44 24 14          	mov    %eax,0x14(%rsp)
    169a:	8b 44 24 04          	mov    0x4(%rsp),%eax
    169e:	69 c0 2e 6b 00 00    	imul   $0x6b2e,%eax,%eax
    16a4:	89 44 24 04          	mov    %eax,0x4(%rsp)
    16a8:	8b 44 24 04          	mov    0x4(%rsp),%eax
    16ac:	69 c0 6d 0f 00 00    	imul   $0xf6d,%eax,%eax
    16b2:	89 44 24 04          	mov    %eax,0x4(%rsp)
    16b6:	8b 44 24 08          	mov    0x8(%rsp),%eax
    16ba:	69 c0 68 c5 00 00    	imul   $0xc568,%eax,%eax
    16c0:	89 44 24 08          	mov    %eax,0x8(%rsp)
    16c4:	8b 04 24             	mov    (%rsp),%eax
    16c7:	69 c0 b7 93 00 00    	imul   $0x93b7,%eax,%eax
    16cd:	89 04 24             	mov    %eax,(%rsp)
    16d0:	8b 44 24 20          	mov    0x20(%rsp),%eax
    16d4:	69 c0 b8 37 00 00    	imul   $0x37b8,%eax,%eax
    16da:	89 44 24 20          	mov    %eax,0x20(%rsp)
    16de:	8b 44 24 08          	mov    0x8(%rsp),%eax
    16e2:	69 c0 45 f6 00 00    	imul   $0xf645,%eax,%eax
    16e8:	89 44 24 08          	mov    %eax,0x8(%rsp)
    16ec:	8b 44 24 18          	mov    0x18(%rsp),%eax
    16f0:	69 c0 66 8b 00 00    	imul   $0x8b66,%eax,%eax
    16f6:	89 44 24 18          	mov    %eax,0x18(%rsp)
    16fa:	8b 44 24 1c          	mov    0x1c(%rsp),%eax
    16fe:	69 c0 8d 06 00 00    	imul   $0x68d,%eax,%eax
    1704:	89 44 24 1c          	mov    %eax,0x1c(%rsp)
    1708:	8b 44 24 18          	mov    0x18(%rsp),%eax
    170c:	69 c0 65 6d 00 00    	imul   $0x6d65,%eax,%eax
    1712:	89 44 24 18          	mov    %eax,0x18(%rsp)
    1716:	8b 44 24 10          	mov    0x10(%rsp),%eax
    171a:	69 c0 50 8f 00 00    	imul   $0x8f50,%eax,%eax
    1720:	89 44 24 10          	mov    %eax,0x10(%rsp)
    1724:	8b 44 24 04          	mov    0x4(%rsp),%eax
    1728:	69 c0 c6 7a 00 00    	imul   $0x7ac6,%eax,%eax
    172e:	89 44 24 04          	mov    %eax,0x4(%rsp)
    1732:	8b 44 24 08          	mov    0x8(%rsp),%eax
    1736:	69 c0 ee ea 00 00    	imul   $0xeaee,%eax,%eax
    173c:	89 44 24 08          	mov    %eax,0x8(%rsp)
    1740:	8b 44 24 08          	mov    0x8(%rsp),%eax
    1744:	69 c0 b3 30 00 00    	imul   $0x30b3,%eax,%eax
    174a:	89 44 24 08          	mov    %eax,0x8(%rsp)
    174e:	8b 44 24 20          	mov    0x20(%rsp),%eax
    1752:	69 c0 ae 2e 00 00    	imul   $0x2eae,%eax,%eax
    1758:	89 44 24 20          	mov    %eax,0x20(%rsp)
    175c:	8b 44 24 08          	mov    0x8(%rsp),%eax
    1760:	69 c0 1f 98 00 00    	imul   $0x981f,%eax,%eax
    1766:	89 44 24 08          	mov    %eax,0x8(%rsp)
    176a:	8b 44 24 14          	mov    0x14(%rsp),%eax
    176e:	69 c0 49 9f 00 00    	imul   $0x9f49,%eax,%eax
    1774:	89 44 24 14          	mov    %eax,0x14(%rsp)
    1778:	8b 44 24 1c          	mov    0x1c(%rsp),%eax
    177c:	69 c0 16 d0 00 00    	imul   $0xd016,%eax,%eax
    1782:	89 44 24 1c          	mov    %eax,0x1c(%rsp)
    1786:	8b 04 24             	mov    (%rsp),%eax
    1789:	69 c0 dc ac 00 00    	imul   $0xacdc,%eax,%eax
    178f:	89 04 24             	mov    %eax,(%rsp)
    1792:	8b 44 24 14          	mov    0x14(%rsp),%eax
    1796:	69 c0 35 e4 00 00    	imul   $0xe435,%eax,%eax
    179c:	89 44 24 14          	mov    %eax,0x14(%rsp)
    17a0:	8b 44 24 20          	mov    0x20(%rsp),%eax
    17a4:	69 c0 22 40 00 00    	imul   $0x4022,%eax,%eax
    17aa:	89 44 24 20          	mov    %eax,0x20(%rsp)
    17ae:	8b 44 24 0c          	mov    0xc(%rsp),%eax
    17b2:	69 c0 86 fa 00 00    	imul   $0xfa86,%eax,%eax
    17b8:	89 44 24 0c          	mov    %eax,0xc(%rsp)
    17bc:	8b 44 24 20          	mov    0x20(%rsp),%eax
    17c0:	69 c0 32 57 00 00    	imul   $0x5732,%eax,%eax
    17c6:	89 44 24 20          	mov    %eax,0x20(%rsp)
    17ca:	8b 44 24 0c          	mov    0xc(%rsp),%eax
    17ce:	69 c0 81 e0 00 00    	imul   $0xe081,%eax,%eax
    17d4:	89 44 24 0c          	mov    %eax,0xc(%rsp)
    17d8:	8b 04 24             	mov    (%rsp),%eax
    17db:	69 c0 c1 04 00 00    	imul   $0x4c1,%eax,%eax
    17e1:	89 04 24             	mov    %eax,(%rsp)
    17e4:	8b 44 24 14          	mov    0x14(%rsp),%eax
    17e8:	69 c0 7e 7d 00 00    	imul   $0x7d7e,%eax,%eax
    17ee:	89 44 24 14          	mov    %eax,0x14(%rsp)
    17f2:	8b 04 24             	mov    (%rsp),%eax
    17f5:	69 c0 42 b6 00 00    	imul   $0xb642,%eax,%eax
    17fb:	89 04 24             	mov    %eax,(%rsp)
    17fe:	8b 44 24 08          	mov    0x8(%rsp),%eax
    1802:	69 c0 a0 ae 00 00    	imul   $0xaea0,%eax,%eax
    1808:	89 44 24 08          	mov    %eax,0x8(%rsp)
    180c:	8b 44 24 20          	mov    0x20(%rsp),%eax
    1810:	69 c0 72 f9 00 00    	imul   $0xf972,%eax,%eax
    1816:	89 44 24 20          	mov    %eax,0x20(%rsp)
    181a:	8b 04 24             	mov    (%rsp),%eax
    181d:	69 c0 e5 6e 00 00    	imul   $0x6ee5,%eax,%eax
    1823:	89 04 24             	mov    %eax,(%rsp)
    1826:	8b 44 24 20          	mov    0x20(%rsp),%eax
    182a:	69 c0 86 cd 00 00    	imul   $0xcd86,%eax,%eax
    1830:	89 44 24 20          	mov    %eax,0x20(%rsp)
    1834:	8b 44 24 10          	mov    0x10(%rsp),%eax
    1838:	69 c0 7c ef 00 00    	imul   $0xef7c,%eax,%eax
    183e:	89 44 24 10          	mov    %eax,0x10(%rsp)
    1842:	8b 04 24             	mov    (%rsp),%eax
    1845:	69 c0 51 0a 00 00    	imul   $0xa51,%eax,%eax
    184b:	89 04 24             	mov    %eax,(%rsp)
    184e:	8b 44 24 14          	mov    0x14(%rsp),%eax
    1852:	69 c0 87 1b 00 00    	imul   $0x1b87,%eax,%eax
    1858:	89 44 24 14          	mov    %eax,0x14(%rsp)
    185c:	8b 04 24             	mov    (%rsp),%eax
    185f:	69 c0 11 55 00 00    	imul   $0x5511,%eax,%eax
    1865:	89 04 24             	mov    %eax,(%rsp)
    1868:	8b 44 24 0c          	mov    0xc(%rsp),%eax
    186c:	69 c0 c0 f7 00 00    	imul   $0xf7c0,%eax,%eax
    1872:	89 44 24 0c          	mov    %eax,0xc(%rsp)
    1876:	8b 44 24 18          	mov    0x18(%rsp),%eax
    187a:	69 c0 aa 1b 00 00    	imul   $0x1baa,%eax,%eax
    1880:	89 44 24 18          	mov    %eax,0x18(%rsp)
    1884:	8b 44 24 20          	mov    0x20(%rsp),%eax
    1888:	69 c0 9b cb 00 00    	imul   $0xcb9b,%eax,%eax
    188e:	89 44 24 20          	mov    %eax,0x20(%rsp)
    1892:	8b 44 24 20          	mov    0x20(%rsp),%eax
    1896:	69 c0 32 78 00 00    	imul   $0x7832,%eax,%eax
    189c:	89 44 24 20          	mov    %eax,0x20(%rsp)
    18a0:	8b 44 24 10          	mov    0x10(%rsp),%eax
    18a4:	69 c0 9c d0 00 00    	imul   $0xd09c,%eax,%eax
    18aa:	89 44 24 10          	mov    %eax,0x10(%rsp)
    18ae:	8b 44 24 18          	mov    0x18(%rsp),%eax
    18b2:	69 c0 03 fa 00 00    	imul   $0xfa03,%eax,%eax
    18b8:	89 44 24 18          	mov    %eax,0x18(%rsp)
    18bc:	8b 44 24 24          	mov    0x24(%rsp),%eax
    18c0:	69 c0 05 11 00 00    	imul   $0x1105,%eax,%eax
    18c6:	89 44 24 24          	mov    %eax,0x24(%rsp)
    18ca:	8b 04 24             	mov    (%rsp),%eax
    18cd:	69 c0 5e 46 00 00    	imul   $0x465e,%eax,%eax
    18d3:	89 04 24             	mov    %eax,(%rsp)
    18d6:	8b 44 24 08          	mov    0x8(%rsp),%eax
    18da:	69 c0 76 51 00 00    	imul   $0x5176,%eax,%eax
    18e0:	89 44 24 08          	mov    %eax,0x8(%rsp)
    18e4:	8b 44 24 1c          	mov    0x1c(%rsp),%eax
    18e8:	69 c0 fa 9e 00 00    	imul   $0x9efa,%eax,%eax
    18ee:	89 44 24 1c          	mov    %eax,0x1c(%rsp)
    18f2:	8b 44 24 18          	mov    0x18(%rsp),%eax
    18f6:	69 c0 f0 67 00 00    	imul   $0x67f0,%eax,%eax
    18fc:	89 44 24 18          	mov    %eax,0x18(%rsp)
    1900:	8b 44 24 20          	mov    0x20(%rsp),%eax
    1904:	69 c0 5f c7 00 00    	imul   $0xc75f,%eax,%eax
    190a:	89 44 24 20          	mov    %eax,0x20(%rsp)
    190e:	8b 44 24 10          	mov    0x10(%rsp),%eax
    1912:	69 c0 50 d9 00 00    	imul   $0xd950,%eax,%eax
    1918:	89 44 24 10          	mov    %eax,0x10(%rsp)
    191c:	8b 44 24 04          	mov    0x4(%rsp),%eax
    1920:	69 c0 ff 16 00 00    	imul   $0x16ff,%eax,%eax
    1926:	89 44 24 04          	mov    %eax,0x4(%rsp)
    192a:	8b 44 24 08          	mov    0x8(%rsp),%eax
    192e:	69 c0 dd 88 00 00    	imul   $0x88dd,%eax,%eax
    1934:	89 44 24 08          	mov    %eax,0x8(%rsp)
    1938:	ba 00 00 00 00       	mov    $0x0,%edx
    193d:	b8 00 00 00 00       	mov    $0x0,%eax
    1942:	eb 0a                	jmp    194e <scramble+0x40f>
    1944:	89 d1                	mov    %edx,%ecx
    1946:	8b 0c 8c             	mov    (%rsp,%rcx,4),%ecx
    1949:	01 c8                	add    %ecx,%eax
    194b:	83 c2 01             	add    $0x1,%edx
    194e:	83 fa 09             	cmp    $0x9,%edx
    1951:	76 f1                	jbe    1944 <scramble+0x405>
    1953:	48 8b 74 24 28       	mov    0x28(%rsp),%rsi
    1958:	64 48 33 34 25 28 00 	xor    %fs:0x28,%rsi
    195f:	00 00 
    1961:	75 05                	jne    1968 <scramble+0x429>
    1963:	48 83 c4 38          	add    $0x38,%rsp
    1967:	c3                   	retq   
    1968:	e8 f3 f4 ff ff       	callq  e60 <__stack_chk_fail@plt>

000000000000196d <getbuf>:
    196d:	48 83 ec 38          	sub    $0x38,%rsp
    1971:	48 89 e7             	mov    %rsp,%rdi
    1974:	e8 ba 03 00 00       	callq  1d33 <Gets>
    1979:	b8 01 00 00 00       	mov    $0x1,%eax
    197e:	48 83 c4 38          	add    $0x38,%rsp
    1982:	c3                   	retq   

0000000000001983 <touch1>:
    1983:	48 83 ec 08          	sub    $0x8,%rsp
    1987:	c7 05 4b 3a 20 00 01 	movl   $0x1,0x203a4b(%rip)        # 2053dc <vlevel>
    198e:	00 00 00 
    1991:	48 8d 3d a8 1a 00 00 	lea    0x1aa8(%rip),%rdi        # 3440 <_IO_stdin_used+0x2e0>
    1998:	e8 a3 f4 ff ff       	callq  e40 <puts@plt>
    199d:	bf 01 00 00 00       	mov    $0x1,%edi
    19a2:	e8 fc 05 00 00       	callq  1fa3 <validate>
    19a7:	bf 00 00 00 00       	mov    $0x0,%edi
    19ac:	e8 ff f5 ff ff       	callq  fb0 <exit@plt>

00000000000019b1 <touch2>:
    19b1:	48 83 ec 08          	sub    $0x8,%rsp
    19b5:	89 fa                	mov    %edi,%edx
    19b7:	c7 05 1b 3a 20 00 02 	movl   $0x2,0x203a1b(%rip)        # 2053dc <vlevel>
    19be:	00 00 00 
    19c1:	39 3d 1d 3a 20 00    	cmp    %edi,0x203a1d(%rip)        # 2053e4 <cookie>
    19c7:	74 2a                	je     19f3 <touch2+0x42>
    19c9:	48 8d 35 c0 1a 00 00 	lea    0x1ac0(%rip),%rsi        # 3490 <_IO_stdin_used+0x330>
    19d0:	bf 01 00 00 00       	mov    $0x1,%edi
    19d5:	b8 00 00 00 00       	mov    $0x0,%eax
    19da:	e8 81 f5 ff ff       	callq  f60 <__printf_chk@plt>
    19df:	bf 02 00 00 00       	mov    $0x2,%edi
    19e4:	e8 8a 06 00 00       	callq  2073 <fail>
    19e9:	bf 00 00 00 00       	mov    $0x0,%edi
    19ee:	e8 bd f5 ff ff       	callq  fb0 <exit@plt>
    19f3:	48 8d 35 6e 1a 00 00 	lea    0x1a6e(%rip),%rsi        # 3468 <_IO_stdin_used+0x308>
    19fa:	bf 01 00 00 00       	mov    $0x1,%edi
    19ff:	b8 00 00 00 00       	mov    $0x0,%eax
    1a04:	e8 57 f5 ff ff       	callq  f60 <__printf_chk@plt>
    1a09:	bf 02 00 00 00       	mov    $0x2,%edi
    1a0e:	e8 90 05 00 00       	callq  1fa3 <validate>
    1a13:	eb d4                	jmp    19e9 <touch2+0x38>

0000000000001a15 <hexmatch>:
    1a15:	41 54                	push   %r12
    1a17:	55                   	push   %rbp
    1a18:	53                   	push   %rbx
    1a19:	48 83 c4 80          	add    $0xffffffffffffff80,%rsp
    1a1d:	89 fd                	mov    %edi,%ebp
    1a1f:	48 89 f3             	mov    %rsi,%rbx
    1a22:	64 48 8b 04 25 28 00 	mov    %fs:0x28,%rax
    1a29:	00 00 
    1a2b:	48 89 44 24 78       	mov    %rax,0x78(%rsp)
    1a30:	31 c0                	xor    %eax,%eax
    1a32:	e8 e9 f4 ff ff       	callq  f20 <random@plt>
    1a37:	48 89 c1             	mov    %rax,%rcx
    1a3a:	48 ba 0b d7 a3 70 3d 	movabs $0xa3d70a3d70a3d70b,%rdx
    1a41:	0a d7 a3 
    1a44:	48 f7 ea             	imul   %rdx
    1a47:	48 01 ca             	add    %rcx,%rdx
    1a4a:	48 c1 fa 06          	sar    $0x6,%rdx
    1a4e:	48 89 c8             	mov    %rcx,%rax
    1a51:	48 c1 f8 3f          	sar    $0x3f,%rax
    1a55:	48 29 c2             	sub    %rax,%rdx
    1a58:	48 8d 04 92          	lea    (%rdx,%rdx,4),%rax
    1a5c:	48 8d 14 80          	lea    (%rax,%rax,4),%rdx
    1a60:	48 8d 04 95 00 00 00 	lea    0x0(,%rdx,4),%rax
    1a67:	00 
    1a68:	48 29 c1             	sub    %rax,%rcx
    1a6b:	4c 8d 24 0c          	lea    (%rsp,%rcx,1),%r12
    1a6f:	41 89 e8             	mov    %ebp,%r8d
    1a72:	48 8d 0d e4 19 00 00 	lea    0x19e4(%rip),%rcx        # 345d <_IO_stdin_used+0x2fd>
    1a79:	48 c7 c2 ff ff ff ff 	mov    $0xffffffffffffffff,%rdx
    1a80:	be 01 00 00 00       	mov    $0x1,%esi
    1a85:	4c 89 e7             	mov    %r12,%rdi
    1a88:	b8 00 00 00 00       	mov    $0x0,%eax
    1a8d:	e8 4e f5 ff ff       	callq  fe0 <__sprintf_chk@plt>
    1a92:	ba 09 00 00 00       	mov    $0x9,%edx
    1a97:	4c 89 e6             	mov    %r12,%rsi
    1a9a:	48 89 df             	mov    %rbx,%rdi
    1a9d:	e8 7e f3 ff ff       	callq  e20 <strncmp@plt>
    1aa2:	85 c0                	test   %eax,%eax
    1aa4:	0f 94 c0             	sete   %al
    1aa7:	48 8b 5c 24 78       	mov    0x78(%rsp),%rbx
    1aac:	64 48 33 1c 25 28 00 	xor    %fs:0x28,%rbx
    1ab3:	00 00 
    1ab5:	75 0c                	jne    1ac3 <hexmatch+0xae>
    1ab7:	0f b6 c0             	movzbl %al,%eax
    1aba:	48 83 ec 80          	sub    $0xffffffffffffff80,%rsp
    1abe:	5b                   	pop    %rbx
    1abf:	5d                   	pop    %rbp
    1ac0:	41 5c                	pop    %r12
    1ac2:	c3                   	retq   
    1ac3:	e8 98 f3 ff ff       	callq  e60 <__stack_chk_fail@plt>

0000000000001ac8 <touch3>:
    1ac8:	53                   	push   %rbx
    1ac9:	48 89 fb             	mov    %rdi,%rbx
    1acc:	c7 05 06 39 20 00 03 	movl   $0x3,0x203906(%rip)        # 2053dc <vlevel>
    1ad3:	00 00 00 
    1ad6:	48 89 fe             	mov    %rdi,%rsi
    1ad9:	8b 3d 05 39 20 00    	mov    0x203905(%rip),%edi        # 2053e4 <cookie>
    1adf:	e8 31 ff ff ff       	callq  1a15 <hexmatch>
    1ae4:	85 c0                	test   %eax,%eax
    1ae6:	74 2d                	je     1b15 <touch3+0x4d>
    1ae8:	48 89 da             	mov    %rbx,%rdx
    1aeb:	48 8d 35 c6 19 00 00 	lea    0x19c6(%rip),%rsi        # 34b8 <_IO_stdin_used+0x358>
    1af2:	bf 01 00 00 00       	mov    $0x1,%edi
    1af7:	b8 00 00 00 00       	mov    $0x0,%eax
    1afc:	e8 5f f4 ff ff       	callq  f60 <__printf_chk@plt>
    1b01:	bf 03 00 00 00       	mov    $0x3,%edi
    1b06:	e8 98 04 00 00       	callq  1fa3 <validate>
    1b0b:	bf 00 00 00 00       	mov    $0x0,%edi
    1b10:	e8 9b f4 ff ff       	callq  fb0 <exit@plt>
    1b15:	48 89 da             	mov    %rbx,%rdx
    1b18:	48 8d 35 c1 19 00 00 	lea    0x19c1(%rip),%rsi        # 34e0 <_IO_stdin_used+0x380>
    1b1f:	bf 01 00 00 00       	mov    $0x1,%edi
    1b24:	b8 00 00 00 00       	mov    $0x0,%eax
    1b29:	e8 32 f4 ff ff       	callq  f60 <__printf_chk@plt>
    1b2e:	bf 03 00 00 00       	mov    $0x3,%edi
    1b33:	e8 3b 05 00 00       	callq  2073 <fail>
    1b38:	eb d1                	jmp    1b0b <touch3+0x43>

0000000000001b3a <test>:
    1b3a:	48 83 ec 08          	sub    $0x8,%rsp
    1b3e:	b8 00 00 00 00       	mov    $0x0,%eax
    1b43:	e8 25 fe ff ff       	callq  196d <getbuf>
    1b48:	89 c2                	mov    %eax,%edx
    1b4a:	48 8d 35 b7 19 00 00 	lea    0x19b7(%rip),%rsi        # 3508 <_IO_stdin_used+0x3a8>
    1b51:	bf 01 00 00 00       	mov    $0x1,%edi
    1b56:	b8 00 00 00 00       	mov    $0x0,%eax
    1b5b:	e8 00 f4 ff ff       	callq  f60 <__printf_chk@plt>
    1b60:	48 83 c4 08          	add    $0x8,%rsp
    1b64:	c3                   	retq   

0000000000001b65 <start_farm>:
    1b65:	b8 01 00 00 00       	mov    $0x1,%eax
    1b6a:	c3                   	retq   

0000000000001b6b <getval_285>:
    1b6b:	b8 48 a9 c7 90       	mov    $0x90c7a948,%eax
    1b70:	c3                   	retq   

0000000000001b71 <addval_443>:
    1b71:	8d 87 58 90 92 c3    	lea    -0x3c6d6fa8(%rdi),%eax
    1b77:	c3                   	retq   

0000000000001b78 <addval_419>:
    1b78:	8d 87 d7 58 92 90    	lea    -0x6f6da729(%rdi),%eax
    1b7e:	c3                   	retq   

0000000000001b7f <addval_158>:
    1b7f:	8d 87 58 90 90 c3    	lea    -0x3c6f6fa8(%rdi),%eax
    1b85:	c3                   	retq   

0000000000001b86 <setval_193>:
    1b86:	c7 07 58 90 90 c3    	movl   $0xc3909058,(%rdi)
    1b8c:	c3                   	retq   

0000000000001b8d <setval_383>:
    1b8d:	c7 07 48 89 c7 90    	movl   $0x90c78948,(%rdi)
    1b93:	c3                   	retq   

0000000000001b94 <setval_249>:
    1b94:	c7 07 48 89 c7 94    	movl   $0x94c78948,(%rdi)
    1b9a:	c3                   	retq   

0000000000001b9b <getval_134>:
    1b9b:	b8 48 89 c7 c3       	mov    $0xc3c78948,%eax
    1ba0:	c3                   	retq   

0000000000001ba1 <mid_farm>:
    1ba1:	b8 01 00 00 00       	mov    $0x1,%eax
    1ba6:	c3                   	retq   

0000000000001ba7 <add_xy>:
    1ba7:	48 8d 04 37          	lea    (%rdi,%rsi,1),%rax
    1bab:	c3                   	retq   

0000000000001bac <setval_375>:
    1bac:	c7 07 48 89 e0 92    	movl   $0x92e08948,(%rdi)
    1bb2:	c3                   	retq   

0000000000001bb3 <setval_420>:
    1bb3:	c7 07 48 8d e0 c3    	movl   $0xc3e08d48,(%rdi)
    1bb9:	c3                   	retq   

0000000000001bba <addval_290>:
    1bba:	8d 87 db 48 a9 e0    	lea    -0x1f56b725(%rdi),%eax
    1bc0:	c3                   	retq   

0000000000001bc1 <addval_315>:
    1bc1:	8d 87 48 89 e0 94    	lea    -0x6b1f76b8(%rdi),%eax
    1bc7:	c3                   	retq   

0000000000001bc8 <getval_116>:
    1bc8:	b8 70 89 c2 92       	mov    $0x92c28970,%eax
    1bcd:	c3                   	retq   

0000000000001bce <setval_463>:
    1bce:	c7 07 81 c2 20 db    	movl   $0xdb20c281,(%rdi)
    1bd4:	c3                   	retq   

0000000000001bd5 <getval_163>:
    1bd5:	b8 c9 d1 20 c9       	mov    $0xc920d1c9,%eax
    1bda:	c3                   	retq   

0000000000001bdb <setval_199>:
    1bdb:	c7 07 99 ce 08 c0    	movl   $0xc008ce99,(%rdi)
    1be1:	c3                   	retq   

0000000000001be2 <getval_488>:
    1be2:	b8 89 d1 90 c2       	mov    $0xc290d189,%eax
    1be7:	c3                   	retq   

0000000000001be8 <addval_351>:
    1be8:	8d 87 c4 4c 89 e0    	lea    -0x1f76b33c(%rdi),%eax
    1bee:	c3                   	retq   

0000000000001bef <setval_337>:
    1bef:	c7 07 ba 00 89 c2    	movl   $0xc28900ba,(%rdi)
    1bf5:	c3                   	retq   

0000000000001bf6 <setval_124>:
    1bf6:	c7 07 89 ce 94 c9    	movl   $0xc994ce89,(%rdi)
    1bfc:	c3                   	retq   

0000000000001bfd <addval_492>:
    1bfd:	8d 87 48 89 e0 c3    	lea    -0x3c1f76b8(%rdi),%eax
    1c03:	c3                   	retq   

0000000000001c04 <setval_485>:
    1c04:	c7 07 89 c2 c4 d2    	movl   $0xd2c4c289,(%rdi)
    1c0a:	c3                   	retq   

0000000000001c0b <addval_478>:
    1c0b:	8d 87 89 c2 08 db    	lea    -0x24f73d77(%rdi),%eax
    1c11:	c3                   	retq   

0000000000001c12 <addval_267>:
    1c12:	8d 87 81 c2 90 c3    	lea    -0x3c6f3d7f(%rdi),%eax
    1c18:	c3                   	retq   

0000000000001c19 <addval_228>:
    1c19:	8d 87 97 89 d1 94    	lea    -0x6b2e7669(%rdi),%eax
    1c1f:	c3                   	retq   

0000000000001c20 <setval_483>:
    1c20:	c7 07 09 c2 20 d2    	movl   $0xd220c209,(%rdi)
    1c26:	c3                   	retq   

0000000000001c27 <addval_212>:
    1c27:	8d 87 3e 89 c2 c7    	lea    -0x383d76c2(%rdi),%eax
    1c2d:	c3                   	retq   

0000000000001c2e <addval_449>:
    1c2e:	8d 87 89 d1 30 d2    	lea    -0x2dcf2e77(%rdi),%eax
    1c34:	c3                   	retq   

0000000000001c35 <setval_112>:
    1c35:	c7 07 99 ce 38 db    	movl   $0xdb38ce99,(%rdi)
    1c3b:	c3                   	retq   

0000000000001c3c <addval_393>:
    1c3c:	8d 87 82 89 d1 c3    	lea    -0x3c2e767e(%rdi),%eax
    1c42:	c3                   	retq   

0000000000001c43 <getval_481>:
    1c43:	b8 14 89 d1 c7       	mov    $0xc7d18914,%eax
    1c48:	c3                   	retq   

0000000000001c49 <addval_138>:
    1c49:	8d 87 48 89 e0 90    	lea    -0x6f1f76b8(%rdi),%eax
    1c4f:	c3                   	retq   

0000000000001c50 <setval_314>:
    1c50:	c7 07 c9 ce 08 d2    	movl   $0xd208cec9,(%rdi)
    1c56:	c3                   	retq   

0000000000001c57 <setval_109>:
    1c57:	c7 07 89 d1 30 d2    	movl   $0xd230d189,(%rdi)
    1c5d:	c3                   	retq   

0000000000001c5e <setval_352>:
    1c5e:	c7 07 89 ce 20 db    	movl   $0xdb20ce89,(%rdi)
    1c64:	c3                   	retq   

0000000000001c65 <getval_130>:
    1c65:	b8 89 ce 48 c9       	mov    $0xc948ce89,%eax
    1c6a:	c3                   	retq   

0000000000001c6b <getval_169>:
    1c6b:	b8 89 ce 94 90       	mov    $0x9094ce89,%eax
    1c70:	c3                   	retq   

0000000000001c71 <setval_397>:
    1c71:	c7 07 48 89 e0 94    	movl   $0x94e08948,(%rdi)
    1c77:	c3                   	retq   

0000000000001c78 <getval_177>:
    1c78:	b8 89 ce 90 90       	mov    $0x9090ce89,%eax
    1c7d:	c3                   	retq   

0000000000001c7e <addval_291>:
    1c7e:	8d 87 89 d1 c3 d5    	lea    -0x2a3c2e77(%rdi),%eax
    1c84:	c3                   	retq   

0000000000001c85 <end_farm>:
    1c85:	b8 01 00 00 00       	mov    $0x1,%eax
    1c8a:	c3                   	retq   

0000000000001c8b <save_char>:
    1c8b:	8b 05 73 43 20 00    	mov    0x204373(%rip),%eax        # 206004 <gets_cnt>
    1c91:	3d ff 03 00 00       	cmp    $0x3ff,%eax
    1c96:	7f 4a                	jg     1ce2 <save_char+0x57>
    1c98:	89 f9                	mov    %edi,%ecx
    1c9a:	c0 e9 04             	shr    $0x4,%cl
    1c9d:	8d 14 40             	lea    (%rax,%rax,2),%edx
    1ca0:	4c 8d 05 89 1b 00 00 	lea    0x1b89(%rip),%r8        # 3830 <trans_char>
    1ca7:	83 e1 0f             	and    $0xf,%ecx
    1caa:	45 0f b6 0c 08       	movzbl (%r8,%rcx,1),%r9d
    1caf:	48 8d 0d 4a 37 20 00 	lea    0x20374a(%rip),%rcx        # 205400 <gets_buf>
    1cb6:	48 63 f2             	movslq %edx,%rsi
    1cb9:	44 88 0c 31          	mov    %r9b,(%rcx,%rsi,1)
    1cbd:	8d 72 01             	lea    0x1(%rdx),%esi
    1cc0:	83 e7 0f             	and    $0xf,%edi
    1cc3:	41 0f b6 3c 38       	movzbl (%r8,%rdi,1),%edi
    1cc8:	48 63 f6             	movslq %esi,%rsi
    1ccb:	40 88 3c 31          	mov    %dil,(%rcx,%rsi,1)
    1ccf:	83 c2 02             	add    $0x2,%edx
    1cd2:	48 63 d2             	movslq %edx,%rdx
    1cd5:	c6 04 11 20          	movb   $0x20,(%rcx,%rdx,1)
    1cd9:	83 c0 01             	add    $0x1,%eax
    1cdc:	89 05 22 43 20 00    	mov    %eax,0x204322(%rip)        # 206004 <gets_cnt>
    1ce2:	f3 c3                	repz retq 

0000000000001ce4 <save_term>:
    1ce4:	8b 05 1a 43 20 00    	mov    0x20431a(%rip),%eax        # 206004 <gets_cnt>
    1cea:	8d 04 40             	lea    (%rax,%rax,2),%eax
    1ced:	48 98                	cltq   
    1cef:	48 8d 15 0a 37 20 00 	lea    0x20370a(%rip),%rdx        # 205400 <gets_buf>
    1cf6:	c6 04 02 00          	movb   $0x0,(%rdx,%rax,1)
    1cfa:	c3                   	retq   

0000000000001cfb <check_fail>:
    1cfb:	48 83 ec 08          	sub    $0x8,%rsp
    1cff:	0f be 15 02 43 20 00 	movsbl 0x204302(%rip),%edx        # 206008 <target_prefix>
    1d06:	4c 8d 05 f3 36 20 00 	lea    0x2036f3(%rip),%r8        # 205400 <gets_buf>
    1d0d:	8b 0d c5 36 20 00    	mov    0x2036c5(%rip),%ecx        # 2053d8 <check_level>
    1d13:	48 8d 35 11 18 00 00 	lea    0x1811(%rip),%rsi        # 352b <_IO_stdin_used+0x3cb>
    1d1a:	bf 01 00 00 00       	mov    $0x1,%edi
    1d1f:	b8 00 00 00 00       	mov    $0x0,%eax
    1d24:	e8 37 f2 ff ff       	callq  f60 <__printf_chk@plt>
    1d29:	bf 01 00 00 00       	mov    $0x1,%edi
    1d2e:	e8 7d f2 ff ff       	callq  fb0 <exit@plt>

0000000000001d33 <Gets>:
    1d33:	41 54                	push   %r12
    1d35:	55                   	push   %rbp
    1d36:	53                   	push   %rbx
    1d37:	49 89 fc             	mov    %rdi,%r12
    1d3a:	c7 05 c0 42 20 00 00 	movl   $0x0,0x2042c0(%rip)        # 206004 <gets_cnt>
    1d41:	00 00 00 
    1d44:	48 89 fb             	mov    %rdi,%rbx
    1d47:	eb 11                	jmp    1d5a <Gets+0x27>
    1d49:	48 8d 6b 01          	lea    0x1(%rbx),%rbp
    1d4d:	88 03                	mov    %al,(%rbx)
    1d4f:	0f b6 f8             	movzbl %al,%edi
    1d52:	e8 34 ff ff ff       	callq  1c8b <save_char>
    1d57:	48 89 eb             	mov    %rbp,%rbx
    1d5a:	48 8b 3d 6f 36 20 00 	mov    0x20366f(%rip),%rdi        # 2053d0 <infile>
    1d61:	e8 ca f1 ff ff       	callq  f30 <_IO_getc@plt>
    1d66:	83 f8 ff             	cmp    $0xffffffff,%eax
    1d69:	74 05                	je     1d70 <Gets+0x3d>
    1d6b:	83 f8 0a             	cmp    $0xa,%eax
    1d6e:	75 d9                	jne    1d49 <Gets+0x16>
    1d70:	c6 03 00             	movb   $0x0,(%rbx)
    1d73:	b8 00 00 00 00       	mov    $0x0,%eax
    1d78:	e8 67 ff ff ff       	callq  1ce4 <save_term>
    1d7d:	4c 89 e0             	mov    %r12,%rax
    1d80:	5b                   	pop    %rbx
    1d81:	5d                   	pop    %rbp
    1d82:	41 5c                	pop    %r12
    1d84:	c3                   	retq   

0000000000001d85 <notify_server>:
    1d85:	55                   	push   %rbp
    1d86:	53                   	push   %rbx
    1d87:	48 81 ec 18 40 00 00 	sub    $0x4018,%rsp
    1d8e:	64 48 8b 04 25 28 00 	mov    %fs:0x28,%rax
    1d95:	00 00 
    1d97:	48 89 84 24 08 40 00 	mov    %rax,0x4008(%rsp)
    1d9e:	00 
    1d9f:	31 c0                	xor    %eax,%eax
    1da1:	83 3d 40 36 20 00 00 	cmpl   $0x0,0x203640(%rip)        # 2053e8 <is_checker>
    1da8:	0f 85 d2 00 00 00    	jne    1e80 <notify_server+0xfb>
    1dae:	89 fb                	mov    %edi,%ebx
    1db0:	8b 05 4e 42 20 00    	mov    0x20424e(%rip),%eax        # 206004 <gets_cnt>
    1db6:	83 c0 64             	add    $0x64,%eax
    1db9:	3d 00 20 00 00       	cmp    $0x2000,%eax
    1dbe:	0f 8f dd 00 00 00    	jg     1ea1 <notify_server+0x11c>
    1dc4:	0f be 05 3d 42 20 00 	movsbl 0x20423d(%rip),%eax        # 206008 <target_prefix>
    1dcb:	83 3d 96 35 20 00 00 	cmpl   $0x0,0x203596(%rip)        # 205368 <notify>
    1dd2:	0f 84 e9 00 00 00    	je     1ec1 <notify_server+0x13c>
    1dd8:	8b 15 02 36 20 00    	mov    0x203602(%rip),%edx        # 2053e0 <authkey>
    1dde:	85 db                	test   %ebx,%ebx
    1de0:	0f 84 e5 00 00 00    	je     1ecb <notify_server+0x146>
    1de6:	48 8d 2d 54 17 00 00 	lea    0x1754(%rip),%rbp        # 3541 <_IO_stdin_used+0x3e1>
    1ded:	48 89 e7             	mov    %rsp,%rdi
    1df0:	48 8d 0d 09 36 20 00 	lea    0x203609(%rip),%rcx        # 205400 <gets_buf>
    1df7:	51                   	push   %rcx
    1df8:	56                   	push   %rsi
    1df9:	50                   	push   %rax
    1dfa:	52                   	push   %rdx
    1dfb:	49 89 e9             	mov    %rbp,%r9
    1dfe:	44 8b 05 0b 32 20 00 	mov    0x20320b(%rip),%r8d        # 205010 <target_id>
    1e05:	48 8d 0d 3f 17 00 00 	lea    0x173f(%rip),%rcx        # 354b <_IO_stdin_used+0x3eb>
    1e0c:	ba 00 20 00 00       	mov    $0x2000,%edx
    1e11:	be 01 00 00 00       	mov    $0x1,%esi
    1e16:	b8 00 00 00 00       	mov    $0x0,%eax
    1e1b:	e8 c0 f1 ff ff       	callq  fe0 <__sprintf_chk@plt>
    1e20:	48 83 c4 20          	add    $0x20,%rsp
    1e24:	83 3d 3d 35 20 00 00 	cmpl   $0x0,0x20353d(%rip)        # 205368 <notify>
    1e2b:	0f 84 df 00 00 00    	je     1f10 <notify_server+0x18b>
    1e31:	85 db                	test   %ebx,%ebx
    1e33:	0f 84 c6 00 00 00    	je     1eff <notify_server+0x17a>
    1e39:	48 89 e1             	mov    %rsp,%rcx
    1e3c:	4c 8d 8c 24 00 20 00 	lea    0x2000(%rsp),%r9
    1e43:	00 
    1e44:	41 b8 00 00 00 00    	mov    $0x0,%r8d
    1e4a:	48 8b 15 d7 31 20 00 	mov    0x2031d7(%rip),%rdx        # 205028 <lab>
    1e51:	48 8b 35 d8 31 20 00 	mov    0x2031d8(%rip),%rsi        # 205030 <course>
    1e58:	48 8b 3d c1 31 20 00 	mov    0x2031c1(%rip),%rdi        # 205020 <user_id>
    1e5f:	e8 af 11 00 00       	callq  3013 <driver_post>
    1e64:	85 c0                	test   %eax,%eax
    1e66:	78 6f                	js     1ed7 <notify_server+0x152>
    1e68:	48 8d 3d 21 18 00 00 	lea    0x1821(%rip),%rdi        # 3690 <_IO_stdin_used+0x530>
    1e6f:	e8 cc ef ff ff       	callq  e40 <puts@plt>
    1e74:	48 8d 3d f8 16 00 00 	lea    0x16f8(%rip),%rdi        # 3573 <_IO_stdin_used+0x413>
    1e7b:	e8 c0 ef ff ff       	callq  e40 <puts@plt>
    1e80:	48 8b 84 24 08 40 00 	mov    0x4008(%rsp),%rax
    1e87:	00 
    1e88:	64 48 33 04 25 28 00 	xor    %fs:0x28,%rax
    1e8f:	00 00 
    1e91:	0f 85 07 01 00 00    	jne    1f9e <notify_server+0x219>
    1e97:	48 81 c4 18 40 00 00 	add    $0x4018,%rsp
    1e9e:	5b                   	pop    %rbx
    1e9f:	5d                   	pop    %rbp
    1ea0:	c3                   	retq   
    1ea1:	48 8d 35 b8 17 00 00 	lea    0x17b8(%rip),%rsi        # 3660 <_IO_stdin_used+0x500>
    1ea8:	bf 01 00 00 00       	mov    $0x1,%edi
    1ead:	b8 00 00 00 00       	mov    $0x0,%eax
    1eb2:	e8 a9 f0 ff ff       	callq  f60 <__printf_chk@plt>
    1eb7:	bf 01 00 00 00       	mov    $0x1,%edi
    1ebc:	e8 ef f0 ff ff       	callq  fb0 <exit@plt>
    1ec1:	ba ff ff ff ff       	mov    $0xffffffff,%edx
    1ec6:	e9 13 ff ff ff       	jmpq   1dde <notify_server+0x59>
    1ecb:	48 8d 2d 74 16 00 00 	lea    0x1674(%rip),%rbp        # 3546 <_IO_stdin_used+0x3e6>
    1ed2:	e9 16 ff ff ff       	jmpq   1ded <notify_server+0x68>
    1ed7:	48 8d 94 24 00 20 00 	lea    0x2000(%rsp),%rdx
    1ede:	00 
    1edf:	48 8d 35 81 16 00 00 	lea    0x1681(%rip),%rsi        # 3567 <_IO_stdin_used+0x407>
    1ee6:	bf 01 00 00 00       	mov    $0x1,%edi
    1eeb:	b8 00 00 00 00       	mov    $0x0,%eax
    1ef0:	e8 6b f0 ff ff       	callq  f60 <__printf_chk@plt>
    1ef5:	bf 01 00 00 00       	mov    $0x1,%edi
    1efa:	e8 b1 f0 ff ff       	callq  fb0 <exit@plt>
    1eff:	48 8d 3d 77 16 00 00 	lea    0x1677(%rip),%rdi        # 357d <_IO_stdin_used+0x41d>
    1f06:	e8 35 ef ff ff       	callq  e40 <puts@plt>
    1f0b:	e9 70 ff ff ff       	jmpq   1e80 <notify_server+0xfb>
    1f10:	48 89 ea             	mov    %rbp,%rdx
    1f13:	48 8d 35 ae 17 00 00 	lea    0x17ae(%rip),%rsi        # 36c8 <_IO_stdin_used+0x568>
    1f1a:	bf 01 00 00 00       	mov    $0x1,%edi
    1f1f:	b8 00 00 00 00       	mov    $0x0,%eax
    1f24:	e8 37 f0 ff ff       	callq  f60 <__printf_chk@plt>
    1f29:	48 8b 15 f0 30 20 00 	mov    0x2030f0(%rip),%rdx        # 205020 <user_id>
    1f30:	48 8d 35 4d 16 00 00 	lea    0x164d(%rip),%rsi        # 3584 <_IO_stdin_used+0x424>
    1f37:	bf 01 00 00 00       	mov    $0x1,%edi
    1f3c:	b8 00 00 00 00       	mov    $0x0,%eax
    1f41:	e8 1a f0 ff ff       	callq  f60 <__printf_chk@plt>
    1f46:	48 8b 15 e3 30 20 00 	mov    0x2030e3(%rip),%rdx        # 205030 <course>
    1f4d:	48 8d 35 3d 16 00 00 	lea    0x163d(%rip),%rsi        # 3591 <_IO_stdin_used+0x431>
    1f54:	bf 01 00 00 00       	mov    $0x1,%edi
    1f59:	b8 00 00 00 00       	mov    $0x0,%eax
    1f5e:	e8 fd ef ff ff       	callq  f60 <__printf_chk@plt>
    1f63:	48 8b 15 be 30 20 00 	mov    0x2030be(%rip),%rdx        # 205028 <lab>
    1f6a:	48 8d 35 2c 16 00 00 	lea    0x162c(%rip),%rsi        # 359d <_IO_stdin_used+0x43d>
    1f71:	bf 01 00 00 00       	mov    $0x1,%edi
    1f76:	b8 00 00 00 00       	mov    $0x0,%eax
    1f7b:	e8 e0 ef ff ff       	callq  f60 <__printf_chk@plt>
    1f80:	48 89 e2             	mov    %rsp,%rdx
    1f83:	48 8d 35 1c 16 00 00 	lea    0x161c(%rip),%rsi        # 35a6 <_IO_stdin_used+0x446>
    1f8a:	bf 01 00 00 00       	mov    $0x1,%edi
    1f8f:	b8 00 00 00 00       	mov    $0x0,%eax
    1f94:	e8 c7 ef ff ff       	callq  f60 <__printf_chk@plt>
    1f99:	e9 e2 fe ff ff       	jmpq   1e80 <notify_server+0xfb>
    1f9e:	e8 bd ee ff ff       	callq  e60 <__stack_chk_fail@plt>

0000000000001fa3 <validate>:
    1fa3:	53                   	push   %rbx
    1fa4:	89 fb                	mov    %edi,%ebx
    1fa6:	83 3d 3b 34 20 00 00 	cmpl   $0x0,0x20343b(%rip)        # 2053e8 <is_checker>
    1fad:	74 72                	je     2021 <validate+0x7e>
    1faf:	39 3d 27 34 20 00    	cmp    %edi,0x203427(%rip)        # 2053dc <vlevel>
    1fb5:	75 32                	jne    1fe9 <validate+0x46>
    1fb7:	8b 15 1b 34 20 00    	mov    0x20341b(%rip),%edx        # 2053d8 <check_level>
    1fbd:	39 fa                	cmp    %edi,%edx
    1fbf:	75 3e                	jne    1fff <validate+0x5c>
    1fc1:	0f be 15 40 40 20 00 	movsbl 0x204040(%rip),%edx        # 206008 <target_prefix>
    1fc8:	4c 8d 05 31 34 20 00 	lea    0x203431(%rip),%r8        # 205400 <gets_buf>
    1fcf:	89 f9                	mov    %edi,%ecx
    1fd1:	48 8d 35 f8 15 00 00 	lea    0x15f8(%rip),%rsi        # 35d0 <_IO_stdin_used+0x470>
    1fd8:	bf 01 00 00 00       	mov    $0x1,%edi
    1fdd:	b8 00 00 00 00       	mov    $0x0,%eax
    1fe2:	e8 79 ef ff ff       	callq  f60 <__printf_chk@plt>
    1fe7:	5b                   	pop    %rbx
    1fe8:	c3                   	retq   
    1fe9:	48 8d 3d c2 15 00 00 	lea    0x15c2(%rip),%rdi        # 35b2 <_IO_stdin_used+0x452>
    1ff0:	e8 4b ee ff ff       	callq  e40 <puts@plt>
    1ff5:	b8 00 00 00 00       	mov    $0x0,%eax
    1ffa:	e8 fc fc ff ff       	callq  1cfb <check_fail>
    1fff:	89 f9                	mov    %edi,%ecx
    2001:	48 8d 35 e8 16 00 00 	lea    0x16e8(%rip),%rsi        # 36f0 <_IO_stdin_used+0x590>
    2008:	bf 01 00 00 00       	mov    $0x1,%edi
    200d:	b8 00 00 00 00       	mov    $0x0,%eax
    2012:	e8 49 ef ff ff       	callq  f60 <__printf_chk@plt>
    2017:	b8 00 00 00 00       	mov    $0x0,%eax
    201c:	e8 da fc ff ff       	callq  1cfb <check_fail>
    2021:	39 3d b5 33 20 00    	cmp    %edi,0x2033b5(%rip)        # 2053dc <vlevel>
    2027:	74 1a                	je     2043 <validate+0xa0>
    2029:	48 8d 3d 82 15 00 00 	lea    0x1582(%rip),%rdi        # 35b2 <_IO_stdin_used+0x452>
    2030:	e8 0b ee ff ff       	callq  e40 <puts@plt>
    2035:	89 de                	mov    %ebx,%esi
    2037:	bf 00 00 00 00       	mov    $0x0,%edi
    203c:	e8 44 fd ff ff       	callq  1d85 <notify_server>
    2041:	eb a4                	jmp    1fe7 <validate+0x44>
    2043:	0f be 0d be 3f 20 00 	movsbl 0x203fbe(%rip),%ecx        # 206008 <target_prefix>
    204a:	89 fa                	mov    %edi,%edx
    204c:	48 8d 35 c5 16 00 00 	lea    0x16c5(%rip),%rsi        # 3718 <_IO_stdin_used+0x5b8>
    2053:	bf 01 00 00 00       	mov    $0x1,%edi
    2058:	b8 00 00 00 00       	mov    $0x0,%eax
    205d:	e8 fe ee ff ff       	callq  f60 <__printf_chk@plt>
    2062:	89 de                	mov    %ebx,%esi
    2064:	bf 01 00 00 00       	mov    $0x1,%edi
    2069:	e8 17 fd ff ff       	callq  1d85 <notify_server>
    206e:	e9 74 ff ff ff       	jmpq   1fe7 <validate+0x44>

0000000000002073 <fail>:
    2073:	48 83 ec 08          	sub    $0x8,%rsp
    2077:	83 3d 6a 33 20 00 00 	cmpl   $0x0,0x20336a(%rip)        # 2053e8 <is_checker>
    207e:	75 11                	jne    2091 <fail+0x1e>
    2080:	89 fe                	mov    %edi,%esi
    2082:	bf 00 00 00 00       	mov    $0x0,%edi
    2087:	e8 f9 fc ff ff       	callq  1d85 <notify_server>
    208c:	48 83 c4 08          	add    $0x8,%rsp
    2090:	c3                   	retq   
    2091:	b8 00 00 00 00       	mov    $0x0,%eax
    2096:	e8 60 fc ff ff       	callq  1cfb <check_fail>

000000000000209b <bushandler>:
    209b:	48 83 ec 08          	sub    $0x8,%rsp
    209f:	83 3d 42 33 20 00 00 	cmpl   $0x0,0x203342(%rip)        # 2053e8 <is_checker>
    20a6:	74 16                	je     20be <bushandler+0x23>
    20a8:	48 8d 3d 36 15 00 00 	lea    0x1536(%rip),%rdi        # 35e5 <_IO_stdin_used+0x485>
    20af:	e8 8c ed ff ff       	callq  e40 <puts@plt>
    20b4:	b8 00 00 00 00       	mov    $0x0,%eax
    20b9:	e8 3d fc ff ff       	callq  1cfb <check_fail>
    20be:	48 8d 3d 8b 16 00 00 	lea    0x168b(%rip),%rdi        # 3750 <_IO_stdin_used+0x5f0>
    20c5:	e8 76 ed ff ff       	callq  e40 <puts@plt>
    20ca:	48 8d 3d 1e 15 00 00 	lea    0x151e(%rip),%rdi        # 35ef <_IO_stdin_used+0x48f>
    20d1:	e8 6a ed ff ff       	callq  e40 <puts@plt>
    20d6:	be 00 00 00 00       	mov    $0x0,%esi
    20db:	bf 00 00 00 00       	mov    $0x0,%edi
    20e0:	e8 a0 fc ff ff       	callq  1d85 <notify_server>
    20e5:	bf 01 00 00 00       	mov    $0x1,%edi
    20ea:	e8 c1 ee ff ff       	callq  fb0 <exit@plt>

00000000000020ef <seghandler>:
    20ef:	48 83 ec 08          	sub    $0x8,%rsp
    20f3:	83 3d ee 32 20 00 00 	cmpl   $0x0,0x2032ee(%rip)        # 2053e8 <is_checker>
    20fa:	74 16                	je     2112 <seghandler+0x23>
    20fc:	48 8d 3d 02 15 00 00 	lea    0x1502(%rip),%rdi        # 3605 <_IO_stdin_used+0x4a5>
    2103:	e8 38 ed ff ff       	callq  e40 <puts@plt>
    2108:	b8 00 00 00 00       	mov    $0x0,%eax
    210d:	e8 e9 fb ff ff       	callq  1cfb <check_fail>
    2112:	48 8d 3d 57 16 00 00 	lea    0x1657(%rip),%rdi        # 3770 <_IO_stdin_used+0x610>
    2119:	e8 22 ed ff ff       	callq  e40 <puts@plt>
    211e:	48 8d 3d ca 14 00 00 	lea    0x14ca(%rip),%rdi        # 35ef <_IO_stdin_used+0x48f>
    2125:	e8 16 ed ff ff       	callq  e40 <puts@plt>
    212a:	be 00 00 00 00       	mov    $0x0,%esi
    212f:	bf 00 00 00 00       	mov    $0x0,%edi
    2134:	e8 4c fc ff ff       	callq  1d85 <notify_server>
    2139:	bf 01 00 00 00       	mov    $0x1,%edi
    213e:	e8 6d ee ff ff       	callq  fb0 <exit@plt>

0000000000002143 <illegalhandler>:
    2143:	48 83 ec 08          	sub    $0x8,%rsp
    2147:	83 3d 9a 32 20 00 00 	cmpl   $0x0,0x20329a(%rip)        # 2053e8 <is_checker>
    214e:	74 16                	je     2166 <illegalhandler+0x23>
    2150:	48 8d 3d c1 14 00 00 	lea    0x14c1(%rip),%rdi        # 3618 <_IO_stdin_used+0x4b8>
    2157:	e8 e4 ec ff ff       	callq  e40 <puts@plt>
    215c:	b8 00 00 00 00       	mov    $0x0,%eax
    2161:	e8 95 fb ff ff       	callq  1cfb <check_fail>
    2166:	48 8d 3d 2b 16 00 00 	lea    0x162b(%rip),%rdi        # 3798 <_IO_stdin_used+0x638>
    216d:	e8 ce ec ff ff       	callq  e40 <puts@plt>
    2172:	48 8d 3d 76 14 00 00 	lea    0x1476(%rip),%rdi        # 35ef <_IO_stdin_used+0x48f>
    2179:	e8 c2 ec ff ff       	callq  e40 <puts@plt>
    217e:	be 00 00 00 00       	mov    $0x0,%esi
    2183:	bf 00 00 00 00       	mov    $0x0,%edi
    2188:	e8 f8 fb ff ff       	callq  1d85 <notify_server>
    218d:	bf 01 00 00 00       	mov    $0x1,%edi
    2192:	e8 19 ee ff ff       	callq  fb0 <exit@plt>

0000000000002197 <sigalrmhandler>:
    2197:	48 83 ec 08          	sub    $0x8,%rsp
    219b:	83 3d 46 32 20 00 00 	cmpl   $0x0,0x203246(%rip)        # 2053e8 <is_checker>
    21a2:	74 16                	je     21ba <sigalrmhandler+0x23>
    21a4:	48 8d 3d 81 14 00 00 	lea    0x1481(%rip),%rdi        # 362c <_IO_stdin_used+0x4cc>
    21ab:	e8 90 ec ff ff       	callq  e40 <puts@plt>
    21b0:	b8 00 00 00 00       	mov    $0x0,%eax
    21b5:	e8 41 fb ff ff       	callq  1cfb <check_fail>
    21ba:	ba 05 00 00 00       	mov    $0x5,%edx
    21bf:	48 8d 35 02 16 00 00 	lea    0x1602(%rip),%rsi        # 37c8 <_IO_stdin_used+0x668>
    21c6:	bf 01 00 00 00       	mov    $0x1,%edi
    21cb:	b8 00 00 00 00       	mov    $0x0,%eax
    21d0:	e8 8b ed ff ff       	callq  f60 <__printf_chk@plt>
    21d5:	be 00 00 00 00       	mov    $0x0,%esi
    21da:	bf 00 00 00 00       	mov    $0x0,%edi
    21df:	e8 a1 fb ff ff       	callq  1d85 <notify_server>
    21e4:	bf 01 00 00 00       	mov    $0x1,%edi
    21e9:	e8 c2 ed ff ff       	callq  fb0 <exit@plt>

00000000000021ee <launch>:
    21ee:	55                   	push   %rbp
    21ef:	48 89 e5             	mov    %rsp,%rbp
    21f2:	48 83 ec 10          	sub    $0x10,%rsp
    21f6:	48 89 fa             	mov    %rdi,%rdx
    21f9:	64 48 8b 04 25 28 00 	mov    %fs:0x28,%rax
    2200:	00 00 
    2202:	48 89 45 f8          	mov    %rax,-0x8(%rbp)
    2206:	31 c0                	xor    %eax,%eax
    2208:	48 8d 47 1e          	lea    0x1e(%rdi),%rax
    220c:	48 83 e0 f0          	and    $0xfffffffffffffff0,%rax
    2210:	48 29 c4             	sub    %rax,%rsp
    2213:	48 8d 7c 24 0f       	lea    0xf(%rsp),%rdi
    2218:	48 83 e7 f0          	and    $0xfffffffffffffff0,%rdi
    221c:	be f4 00 00 00       	mov    $0xf4,%esi
    2221:	e8 5a ec ff ff       	callq  e80 <memset@plt>
    2226:	48 8b 05 53 31 20 00 	mov    0x203153(%rip),%rax        # 205380 <stdin@@GLIBC_2.2.5>
    222d:	48 39 05 9c 31 20 00 	cmp    %rax,0x20319c(%rip)        # 2053d0 <infile>
    2234:	74 3a                	je     2270 <launch+0x82>
    2236:	c7 05 9c 31 20 00 00 	movl   $0x0,0x20319c(%rip)        # 2053dc <vlevel>
    223d:	00 00 00 
    2240:	b8 00 00 00 00       	mov    $0x0,%eax
    2245:	e8 f0 f8 ff ff       	callq  1b3a <test>
    224a:	83 3d 97 31 20 00 00 	cmpl   $0x0,0x203197(%rip)        # 2053e8 <is_checker>
    2251:	75 35                	jne    2288 <launch+0x9a>
    2253:	48 8d 3d f2 13 00 00 	lea    0x13f2(%rip),%rdi        # 364c <_IO_stdin_used+0x4ec>
    225a:	e8 e1 eb ff ff       	callq  e40 <puts@plt>
    225f:	48 8b 45 f8          	mov    -0x8(%rbp),%rax
    2263:	64 48 33 04 25 28 00 	xor    %fs:0x28,%rax
    226a:	00 00 
    226c:	75 30                	jne    229e <launch+0xb0>
    226e:	c9                   	leaveq 
    226f:	c3                   	retq   
    2270:	48 8d 35 bd 13 00 00 	lea    0x13bd(%rip),%rsi        # 3634 <_IO_stdin_used+0x4d4>
    2277:	bf 01 00 00 00       	mov    $0x1,%edi
    227c:	b8 00 00 00 00       	mov    $0x0,%eax
    2281:	e8 da ec ff ff       	callq  f60 <__printf_chk@plt>
    2286:	eb ae                	jmp    2236 <launch+0x48>
    2288:	48 8d 3d b2 13 00 00 	lea    0x13b2(%rip),%rdi        # 3641 <_IO_stdin_used+0x4e1>
    228f:	e8 ac eb ff ff       	callq  e40 <puts@plt>
    2294:	b8 00 00 00 00       	mov    $0x0,%eax
    2299:	e8 5d fa ff ff       	callq  1cfb <check_fail>
    229e:	e8 bd eb ff ff       	callq  e60 <__stack_chk_fail@plt>

00000000000022a3 <stable_launch>:
    22a3:	53                   	push   %rbx
    22a4:	48 89 3d 1d 31 20 00 	mov    %rdi,0x20311d(%rip)        # 2053c8 <global_offset>
    22ab:	41 b9 00 00 00 00    	mov    $0x0,%r9d
    22b1:	41 b8 00 00 00 00    	mov    $0x0,%r8d
    22b7:	b9 32 01 00 00       	mov    $0x132,%ecx
    22bc:	ba 07 00 00 00       	mov    $0x7,%edx
    22c1:	be 00 00 10 00       	mov    $0x100000,%esi
    22c6:	bf 00 60 58 55       	mov    $0x55586000,%edi
    22cb:	e8 a0 eb ff ff       	callq  e70 <mmap@plt>
    22d0:	48 89 c3             	mov    %rax,%rbx
    22d3:	48 3d 00 60 58 55    	cmp    $0x55586000,%rax
    22d9:	75 43                	jne    231e <stable_launch+0x7b>
    22db:	48 8d 90 f8 ff 0f 00 	lea    0xffff8(%rax),%rdx
    22e2:	48 89 15 27 3d 20 00 	mov    %rdx,0x203d27(%rip)        # 206010 <stack_top>
    22e9:	48 89 e0             	mov    %rsp,%rax
    22ec:	48 89 d4             	mov    %rdx,%rsp
    22ef:	48 89 c2             	mov    %rax,%rdx
    22f2:	48 89 15 c7 30 20 00 	mov    %rdx,0x2030c7(%rip)        # 2053c0 <global_save_stack>
    22f9:	48 8b 3d c8 30 20 00 	mov    0x2030c8(%rip),%rdi        # 2053c8 <global_offset>
    2300:	e8 e9 fe ff ff       	callq  21ee <launch>
    2305:	48 8b 05 b4 30 20 00 	mov    0x2030b4(%rip),%rax        # 2053c0 <global_save_stack>
    230c:	48 89 c4             	mov    %rax,%rsp
    230f:	be 00 00 10 00       	mov    $0x100000,%esi
    2314:	48 89 df             	mov    %rbx,%rdi
    2317:	e8 34 ec ff ff       	callq  f50 <munmap@plt>
    231c:	5b                   	pop    %rbx
    231d:	c3                   	retq   
    231e:	be 00 00 10 00       	mov    $0x100000,%esi
    2323:	48 89 c7             	mov    %rax,%rdi
    2326:	e8 25 ec ff ff       	callq  f50 <munmap@plt>
    232b:	b9 00 60 58 55       	mov    $0x55586000,%ecx
    2330:	48 8d 15 c9 14 00 00 	lea    0x14c9(%rip),%rdx        # 3800 <_IO_stdin_used+0x6a0>
    2337:	be 01 00 00 00       	mov    $0x1,%esi
    233c:	48 8b 3d 5d 30 20 00 	mov    0x20305d(%rip),%rdi        # 2053a0 <stderr@@GLIBC_2.2.5>
    2343:	b8 00 00 00 00       	mov    $0x0,%eax
    2348:	e8 83 ec ff ff       	callq  fd0 <__fprintf_chk@plt>
    234d:	bf 01 00 00 00       	mov    $0x1,%edi
    2352:	e8 59 ec ff ff       	callq  fb0 <exit@plt>

0000000000002357 <rio_readinitb>:
    2357:	89 37                	mov    %esi,(%rdi)
    2359:	c7 47 04 00 00 00 00 	movl   $0x0,0x4(%rdi)
    2360:	48 8d 47 10          	lea    0x10(%rdi),%rax
    2364:	48 89 47 08          	mov    %rax,0x8(%rdi)
    2368:	c3                   	retq   

0000000000002369 <sigalrm_handler>:
    2369:	48 83 ec 08          	sub    $0x8,%rsp
    236d:	b9 00 00 00 00       	mov    $0x0,%ecx
    2372:	48 8d 15 c7 14 00 00 	lea    0x14c7(%rip),%rdx        # 3840 <trans_char+0x10>
    2379:	be 01 00 00 00       	mov    $0x1,%esi
    237e:	48 8b 3d 1b 30 20 00 	mov    0x20301b(%rip),%rdi        # 2053a0 <stderr@@GLIBC_2.2.5>
    2385:	b8 00 00 00 00       	mov    $0x0,%eax
    238a:	e8 41 ec ff ff       	callq  fd0 <__fprintf_chk@plt>
    238f:	bf 01 00 00 00       	mov    $0x1,%edi
    2394:	e8 17 ec ff ff       	callq  fb0 <exit@plt>

0000000000002399 <rio_writen>:
    2399:	41 55                	push   %r13
    239b:	41 54                	push   %r12
    239d:	55                   	push   %rbp
    239e:	53                   	push   %rbx
    239f:	48 83 ec 08          	sub    $0x8,%rsp
    23a3:	41 89 fc             	mov    %edi,%r12d
    23a6:	48 89 f5             	mov    %rsi,%rbp
    23a9:	49 89 d5             	mov    %rdx,%r13
    23ac:	48 89 d3             	mov    %rdx,%rbx
    23af:	eb 06                	jmp    23b7 <rio_writen+0x1e>
    23b1:	48 29 c3             	sub    %rax,%rbx
    23b4:	48 01 c5             	add    %rax,%rbp
    23b7:	48 85 db             	test   %rbx,%rbx
    23ba:	74 24                	je     23e0 <rio_writen+0x47>
    23bc:	48 89 da             	mov    %rbx,%rdx
    23bf:	48 89 ee             	mov    %rbp,%rsi
    23c2:	44 89 e7             	mov    %r12d,%edi
    23c5:	e8 86 ea ff ff       	callq  e50 <write@plt>
    23ca:	48 85 c0             	test   %rax,%rax
    23cd:	7f e2                	jg     23b1 <rio_writen+0x18>
    23cf:	e8 2c ea ff ff       	callq  e00 <__errno_location@plt>
    23d4:	83 38 04             	cmpl   $0x4,(%rax)
    23d7:	75 15                	jne    23ee <rio_writen+0x55>
    23d9:	b8 00 00 00 00       	mov    $0x0,%eax
    23de:	eb d1                	jmp    23b1 <rio_writen+0x18>
    23e0:	4c 89 e8             	mov    %r13,%rax
    23e3:	48 83 c4 08          	add    $0x8,%rsp
    23e7:	5b                   	pop    %rbx
    23e8:	5d                   	pop    %rbp
    23e9:	41 5c                	pop    %r12
    23eb:	41 5d                	pop    %r13
    23ed:	c3                   	retq   
    23ee:	48 c7 c0 ff ff ff ff 	mov    $0xffffffffffffffff,%rax
    23f5:	eb ec                	jmp    23e3 <rio_writen+0x4a>

00000000000023f7 <rio_read>:
    23f7:	41 55                	push   %r13
    23f9:	41 54                	push   %r12
    23fb:	55                   	push   %rbp
    23fc:	53                   	push   %rbx
    23fd:	48 83 ec 08          	sub    $0x8,%rsp
    2401:	48 89 fb             	mov    %rdi,%rbx
    2404:	49 89 f5             	mov    %rsi,%r13
    2407:	49 89 d4             	mov    %rdx,%r12
    240a:	eb 0a                	jmp    2416 <rio_read+0x1f>
    240c:	e8 ef e9 ff ff       	callq  e00 <__errno_location@plt>
    2411:	83 38 04             	cmpl   $0x4,(%rax)
    2414:	75 5c                	jne    2472 <rio_read+0x7b>
    2416:	8b 6b 04             	mov    0x4(%rbx),%ebp
    2419:	85 ed                	test   %ebp,%ebp
    241b:	7f 24                	jg     2441 <rio_read+0x4a>
    241d:	48 8d 6b 10          	lea    0x10(%rbx),%rbp
    2421:	8b 3b                	mov    (%rbx),%edi
    2423:	ba 00 20 00 00       	mov    $0x2000,%edx
    2428:	48 89 ee             	mov    %rbp,%rsi
    242b:	e8 80 ea ff ff       	callq  eb0 <read@plt>
    2430:	89 43 04             	mov    %eax,0x4(%rbx)
    2433:	85 c0                	test   %eax,%eax
    2435:	78 d5                	js     240c <rio_read+0x15>
    2437:	85 c0                	test   %eax,%eax
    2439:	74 40                	je     247b <rio_read+0x84>
    243b:	48 89 6b 08          	mov    %rbp,0x8(%rbx)
    243f:	eb d5                	jmp    2416 <rio_read+0x1f>
    2441:	89 e8                	mov    %ebp,%eax
    2443:	4c 39 e0             	cmp    %r12,%rax
    2446:	72 03                	jb     244b <rio_read+0x54>
    2448:	44 89 e5             	mov    %r12d,%ebp
    244b:	4c 63 e5             	movslq %ebp,%r12
    244e:	48 8b 73 08          	mov    0x8(%rbx),%rsi
    2452:	4c 89 e2             	mov    %r12,%rdx
    2455:	4c 89 ef             	mov    %r13,%rdi
    2458:	e8 a3 ea ff ff       	callq  f00 <memcpy@plt>
    245d:	4c 01 63 08          	add    %r12,0x8(%rbx)
    2461:	29 6b 04             	sub    %ebp,0x4(%rbx)
    2464:	4c 89 e0             	mov    %r12,%rax
    2467:	48 83 c4 08          	add    $0x8,%rsp
    246b:	5b                   	pop    %rbx
    246c:	5d                   	pop    %rbp
    246d:	41 5c                	pop    %r12
    246f:	41 5d                	pop    %r13
    2471:	c3                   	retq   
    2472:	48 c7 c0 ff ff ff ff 	mov    $0xffffffffffffffff,%rax
    2479:	eb ec                	jmp    2467 <rio_read+0x70>
    247b:	b8 00 00 00 00       	mov    $0x0,%eax
    2480:	eb e5                	jmp    2467 <rio_read+0x70>

0000000000002482 <rio_readlineb>:
    2482:	41 55                	push   %r13
    2484:	41 54                	push   %r12
    2486:	55                   	push   %rbp
    2487:	53                   	push   %rbx
    2488:	48 83 ec 18          	sub    $0x18,%rsp
    248c:	49 89 fd             	mov    %rdi,%r13
    248f:	48 89 f5             	mov    %rsi,%rbp
    2492:	49 89 d4             	mov    %rdx,%r12
    2495:	64 48 8b 04 25 28 00 	mov    %fs:0x28,%rax
    249c:	00 00 
    249e:	48 89 44 24 08       	mov    %rax,0x8(%rsp)
    24a3:	31 c0                	xor    %eax,%eax
    24a5:	bb 01 00 00 00       	mov    $0x1,%ebx
    24aa:	4c 39 e3             	cmp    %r12,%rbx
    24ad:	73 47                	jae    24f6 <rio_readlineb+0x74>
    24af:	48 8d 74 24 07       	lea    0x7(%rsp),%rsi
    24b4:	ba 01 00 00 00       	mov    $0x1,%edx
    24b9:	4c 89 ef             	mov    %r13,%rdi
    24bc:	e8 36 ff ff ff       	callq  23f7 <rio_read>
    24c1:	83 f8 01             	cmp    $0x1,%eax
    24c4:	75 1c                	jne    24e2 <rio_readlineb+0x60>
    24c6:	48 8d 45 01          	lea    0x1(%rbp),%rax
    24ca:	0f b6 54 24 07       	movzbl 0x7(%rsp),%edx
    24cf:	88 55 00             	mov    %dl,0x0(%rbp)
    24d2:	80 7c 24 07 0a       	cmpb   $0xa,0x7(%rsp)
    24d7:	74 1a                	je     24f3 <rio_readlineb+0x71>
    24d9:	48 83 c3 01          	add    $0x1,%rbx
    24dd:	48 89 c5             	mov    %rax,%rbp
    24e0:	eb c8                	jmp    24aa <rio_readlineb+0x28>
    24e2:	85 c0                	test   %eax,%eax
    24e4:	75 32                	jne    2518 <rio_readlineb+0x96>
    24e6:	48 83 fb 01          	cmp    $0x1,%rbx
    24ea:	75 0a                	jne    24f6 <rio_readlineb+0x74>
    24ec:	b8 00 00 00 00       	mov    $0x0,%eax
    24f1:	eb 0a                	jmp    24fd <rio_readlineb+0x7b>
    24f3:	48 89 c5             	mov    %rax,%rbp
    24f6:	c6 45 00 00          	movb   $0x0,0x0(%rbp)
    24fa:	48 89 d8             	mov    %rbx,%rax
    24fd:	48 8b 4c 24 08       	mov    0x8(%rsp),%rcx
    2502:	64 48 33 0c 25 28 00 	xor    %fs:0x28,%rcx
    2509:	00 00 
    250b:	75 14                	jne    2521 <rio_readlineb+0x9f>
    250d:	48 83 c4 18          	add    $0x18,%rsp
    2511:	5b                   	pop    %rbx
    2512:	5d                   	pop    %rbp
    2513:	41 5c                	pop    %r12
    2515:	41 5d                	pop    %r13
    2517:	c3                   	retq   
    2518:	48 c7 c0 ff ff ff ff 	mov    $0xffffffffffffffff,%rax
    251f:	eb dc                	jmp    24fd <rio_readlineb+0x7b>
    2521:	e8 3a e9 ff ff       	callq  e60 <__stack_chk_fail@plt>

0000000000002526 <urlencode>:
    2526:	41 54                	push   %r12
    2528:	55                   	push   %rbp
    2529:	53                   	push   %rbx
    252a:	48 83 ec 10          	sub    $0x10,%rsp
    252e:	48 89 fb             	mov    %rdi,%rbx
    2531:	48 89 f5             	mov    %rsi,%rbp
    2534:	64 48 8b 04 25 28 00 	mov    %fs:0x28,%rax
    253b:	00 00 
    253d:	48 89 44 24 08       	mov    %rax,0x8(%rsp)
    2542:	31 c0                	xor    %eax,%eax
    2544:	48 c7 c1 ff ff ff ff 	mov    $0xffffffffffffffff,%rcx
    254b:	f2 ae                	repnz scas %es:(%rdi),%al
    254d:	48 89 ce             	mov    %rcx,%rsi
    2550:	48 f7 d6             	not    %rsi
    2553:	8d 46 ff             	lea    -0x1(%rsi),%eax
    2556:	eb 0f                	jmp    2567 <urlencode+0x41>
    2558:	44 88 45 00          	mov    %r8b,0x0(%rbp)
    255c:	48 8d 6d 01          	lea    0x1(%rbp),%rbp
    2560:	48 83 c3 01          	add    $0x1,%rbx
    2564:	44 89 e0             	mov    %r12d,%eax
    2567:	44 8d 60 ff          	lea    -0x1(%rax),%r12d
    256b:	85 c0                	test   %eax,%eax
    256d:	0f 84 a8 00 00 00    	je     261b <urlencode+0xf5>
    2573:	44 0f b6 03          	movzbl (%rbx),%r8d
    2577:	41 80 f8 2a          	cmp    $0x2a,%r8b
    257b:	0f 94 c2             	sete   %dl
    257e:	41 80 f8 2d          	cmp    $0x2d,%r8b
    2582:	0f 94 c0             	sete   %al
    2585:	08 c2                	or     %al,%dl
    2587:	75 cf                	jne    2558 <urlencode+0x32>
    2589:	41 80 f8 2e          	cmp    $0x2e,%r8b
    258d:	74 c9                	je     2558 <urlencode+0x32>
    258f:	41 80 f8 5f          	cmp    $0x5f,%r8b
    2593:	74 c3                	je     2558 <urlencode+0x32>
    2595:	41 8d 40 d0          	lea    -0x30(%r8),%eax
    2599:	3c 09                	cmp    $0x9,%al
    259b:	76 bb                	jbe    2558 <urlencode+0x32>
    259d:	41 8d 40 bf          	lea    -0x41(%r8),%eax
    25a1:	3c 19                	cmp    $0x19,%al
    25a3:	76 b3                	jbe    2558 <urlencode+0x32>
    25a5:	41 8d 40 9f          	lea    -0x61(%r8),%eax
    25a9:	3c 19                	cmp    $0x19,%al
    25ab:	76 ab                	jbe    2558 <urlencode+0x32>
    25ad:	41 80 f8 20          	cmp    $0x20,%r8b
    25b1:	74 56                	je     2609 <urlencode+0xe3>
    25b3:	41 8d 40 e0          	lea    -0x20(%r8),%eax
    25b7:	3c 5f                	cmp    $0x5f,%al
    25b9:	0f 96 c2             	setbe  %dl
    25bc:	41 80 f8 09          	cmp    $0x9,%r8b
    25c0:	0f 94 c0             	sete   %al
    25c3:	08 c2                	or     %al,%dl
    25c5:	74 4f                	je     2616 <urlencode+0xf0>
    25c7:	48 89 e7             	mov    %rsp,%rdi
    25ca:	45 0f b6 c0          	movzbl %r8b,%r8d
    25ce:	48 8d 0d 03 13 00 00 	lea    0x1303(%rip),%rcx        # 38d8 <trans_char+0xa8>
    25d5:	ba 08 00 00 00       	mov    $0x8,%edx
    25da:	be 01 00 00 00       	mov    $0x1,%esi
    25df:	b8 00 00 00 00       	mov    $0x0,%eax
    25e4:	e8 f7 e9 ff ff       	callq  fe0 <__sprintf_chk@plt>
    25e9:	0f b6 04 24          	movzbl (%rsp),%eax
    25ed:	88 45 00             	mov    %al,0x0(%rbp)
    25f0:	0f b6 44 24 01       	movzbl 0x1(%rsp),%eax
    25f5:	88 45 01             	mov    %al,0x1(%rbp)
    25f8:	0f b6 44 24 02       	movzbl 0x2(%rsp),%eax
    25fd:	88 45 02             	mov    %al,0x2(%rbp)
    2600:	48 8d 6d 03          	lea    0x3(%rbp),%rbp
    2604:	e9 57 ff ff ff       	jmpq   2560 <urlencode+0x3a>
    2609:	c6 45 00 2b          	movb   $0x2b,0x0(%rbp)
    260d:	48 8d 6d 01          	lea    0x1(%rbp),%rbp
    2611:	e9 4a ff ff ff       	jmpq   2560 <urlencode+0x3a>
    2616:	b8 ff ff ff ff       	mov    $0xffffffff,%eax
    261b:	48 8b 74 24 08       	mov    0x8(%rsp),%rsi
    2620:	64 48 33 34 25 28 00 	xor    %fs:0x28,%rsi
    2627:	00 00 
    2629:	75 09                	jne    2634 <urlencode+0x10e>
    262b:	48 83 c4 10          	add    $0x10,%rsp
    262f:	5b                   	pop    %rbx
    2630:	5d                   	pop    %rbp
    2631:	41 5c                	pop    %r12
    2633:	c3                   	retq   
    2634:	e8 27 e8 ff ff       	callq  e60 <__stack_chk_fail@plt>

0000000000002639 <submitr>:
    2639:	41 57                	push   %r15
    263b:	41 56                	push   %r14
    263d:	41 55                	push   %r13
    263f:	41 54                	push   %r12
    2641:	55                   	push   %rbp
    2642:	53                   	push   %rbx
    2643:	48 81 ec 68 a0 00 00 	sub    $0xa068,%rsp
    264a:	49 89 fd             	mov    %rdi,%r13
    264d:	89 74 24 14          	mov    %esi,0x14(%rsp)
    2651:	49 89 d7             	mov    %rdx,%r15
    2654:	48 89 4c 24 08       	mov    %rcx,0x8(%rsp)
    2659:	4c 89 44 24 18       	mov    %r8,0x18(%rsp)
    265e:	4d 89 ce             	mov    %r9,%r14
    2661:	48 8b ac 24 a0 a0 00 	mov    0xa0a0(%rsp),%rbp
    2668:	00 
    2669:	64 48 8b 04 25 28 00 	mov    %fs:0x28,%rax
    2670:	00 00 
    2672:	48 89 84 24 58 a0 00 	mov    %rax,0xa058(%rsp)
    2679:	00 
    267a:	31 c0                	xor    %eax,%eax
    267c:	c7 44 24 2c 00 00 00 	movl   $0x0,0x2c(%rsp)
    2683:	00 
    2684:	ba 00 00 00 00       	mov    $0x0,%edx
    2689:	be 01 00 00 00       	mov    $0x1,%esi
    268e:	bf 02 00 00 00       	mov    $0x2,%edi
    2693:	e8 58 e9 ff ff       	callq  ff0 <socket@plt>
    2698:	85 c0                	test   %eax,%eax
    269a:	0f 88 a9 02 00 00    	js     2949 <submitr+0x310>
    26a0:	89 c3                	mov    %eax,%ebx
    26a2:	4c 89 ef             	mov    %r13,%rdi
    26a5:	e8 26 e8 ff ff       	callq  ed0 <gethostbyname@plt>
    26aa:	48 85 c0             	test   %rax,%rax
    26ad:	0f 84 e2 02 00 00    	je     2995 <submitr+0x35c>
    26b3:	4c 8d 64 24 30       	lea    0x30(%rsp),%r12
    26b8:	48 c7 44 24 32 00 00 	movq   $0x0,0x32(%rsp)
    26bf:	00 00 
    26c1:	c7 44 24 3a 00 00 00 	movl   $0x0,0x3a(%rsp)
    26c8:	00 
    26c9:	66 c7 44 24 3e 00 00 	movw   $0x0,0x3e(%rsp)
    26d0:	66 c7 44 24 30 02 00 	movw   $0x2,0x30(%rsp)
    26d7:	48 63 50 14          	movslq 0x14(%rax),%rdx
    26db:	48 8b 40 18          	mov    0x18(%rax),%rax
    26df:	48 8b 30             	mov    (%rax),%rsi
    26e2:	48 8d 7c 24 34       	lea    0x34(%rsp),%rdi
    26e7:	b9 0c 00 00 00       	mov    $0xc,%ecx
    26ec:	e8 ef e7 ff ff       	callq  ee0 <__memmove_chk@plt>
    26f1:	0f b7 44 24 14       	movzwl 0x14(%rsp),%eax
    26f6:	66 c1 c8 08          	ror    $0x8,%ax
    26fa:	66 89 44 24 32       	mov    %ax,0x32(%rsp)
    26ff:	ba 10 00 00 00       	mov    $0x10,%edx
    2704:	4c 89 e6             	mov    %r12,%rsi
    2707:	89 df                	mov    %ebx,%edi
    2709:	e8 b2 e8 ff ff       	callq  fc0 <connect@plt>
    270e:	85 c0                	test   %eax,%eax
    2710:	0f 88 e7 02 00 00    	js     29fd <submitr+0x3c4>
    2716:	48 c7 c6 ff ff ff ff 	mov    $0xffffffffffffffff,%rsi
    271d:	b8 00 00 00 00       	mov    $0x0,%eax
    2722:	48 89 f1             	mov    %rsi,%rcx
    2725:	4c 89 f7             	mov    %r14,%rdi
    2728:	f2 ae                	repnz scas %es:(%rdi),%al
    272a:	48 89 ca             	mov    %rcx,%rdx
    272d:	48 f7 d2             	not    %rdx
    2730:	48 89 f1             	mov    %rsi,%rcx
    2733:	4c 89 ff             	mov    %r15,%rdi
    2736:	f2 ae                	repnz scas %es:(%rdi),%al
    2738:	48 f7 d1             	not    %rcx
    273b:	49 89 c8             	mov    %rcx,%r8
    273e:	48 89 f1             	mov    %rsi,%rcx
    2741:	48 8b 7c 24 08       	mov    0x8(%rsp),%rdi
    2746:	f2 ae                	repnz scas %es:(%rdi),%al
    2748:	48 f7 d1             	not    %rcx
    274b:	4d 8d 44 08 fe       	lea    -0x2(%r8,%rcx,1),%r8
    2750:	48 89 f1             	mov    %rsi,%rcx
    2753:	48 8b 7c 24 18       	mov    0x18(%rsp),%rdi
    2758:	f2 ae                	repnz scas %es:(%rdi),%al
    275a:	48 89 c8             	mov    %rcx,%rax
    275d:	48 f7 d0             	not    %rax
    2760:	49 8d 4c 00 ff       	lea    -0x1(%r8,%rax,1),%rcx
    2765:	48 8d 44 52 fd       	lea    -0x3(%rdx,%rdx,2),%rax
    276a:	48 8d 84 01 80 00 00 	lea    0x80(%rcx,%rax,1),%rax
    2771:	00 
    2772:	48 3d 00 20 00 00    	cmp    $0x2000,%rax
    2778:	0f 87 d9 02 00 00    	ja     2a57 <submitr+0x41e>
    277e:	48 8d b4 24 50 40 00 	lea    0x4050(%rsp),%rsi
    2785:	00 
    2786:	b9 00 04 00 00       	mov    $0x400,%ecx
    278b:	b8 00 00 00 00       	mov    $0x0,%eax
    2790:	48 89 f7             	mov    %rsi,%rdi
    2793:	f3 48 ab             	rep stos %rax,%es:(%rdi)
    2796:	4c 89 f7             	mov    %r14,%rdi
    2799:	e8 88 fd ff ff       	callq  2526 <urlencode>
    279e:	85 c0                	test   %eax,%eax
    27a0:	0f 88 24 03 00 00    	js     2aca <submitr+0x491>
    27a6:	4c 8d a4 24 50 20 00 	lea    0x2050(%rsp),%r12
    27ad:	00 
    27ae:	41 55                	push   %r13
    27b0:	48 8d 84 24 58 40 00 	lea    0x4058(%rsp),%rax
    27b7:	00 
    27b8:	50                   	push   %rax
    27b9:	4d 89 f9             	mov    %r15,%r9
    27bc:	4c 8b 44 24 18       	mov    0x18(%rsp),%r8
    27c1:	48 8d 0d a0 10 00 00 	lea    0x10a0(%rip),%rcx        # 3868 <trans_char+0x38>
    27c8:	ba 00 20 00 00       	mov    $0x2000,%edx
    27cd:	be 01 00 00 00       	mov    $0x1,%esi
    27d2:	4c 89 e7             	mov    %r12,%rdi
    27d5:	b8 00 00 00 00       	mov    $0x0,%eax
    27da:	e8 01 e8 ff ff       	callq  fe0 <__sprintf_chk@plt>
    27df:	48 c7 c1 ff ff ff ff 	mov    $0xffffffffffffffff,%rcx
    27e6:	b8 00 00 00 00       	mov    $0x0,%eax
    27eb:	4c 89 e7             	mov    %r12,%rdi
    27ee:	f2 ae                	repnz scas %es:(%rdi),%al
    27f0:	48 89 ca             	mov    %rcx,%rdx
    27f3:	48 f7 d2             	not    %rdx
    27f6:	48 8d 52 ff          	lea    -0x1(%rdx),%rdx
    27fa:	4c 89 e6             	mov    %r12,%rsi
    27fd:	89 df                	mov    %ebx,%edi
    27ff:	e8 95 fb ff ff       	callq  2399 <rio_writen>
    2804:	48 83 c4 10          	add    $0x10,%rsp
    2808:	48 85 c0             	test   %rax,%rax
    280b:	0f 88 44 03 00 00    	js     2b55 <submitr+0x51c>
    2811:	4c 8d 64 24 40       	lea    0x40(%rsp),%r12
    2816:	89 de                	mov    %ebx,%esi
    2818:	4c 89 e7             	mov    %r12,%rdi
    281b:	e8 37 fb ff ff       	callq  2357 <rio_readinitb>
    2820:	48 8d b4 24 50 20 00 	lea    0x2050(%rsp),%rsi
    2827:	00 
    2828:	ba 00 20 00 00       	mov    $0x2000,%edx
    282d:	4c 89 e7             	mov    %r12,%rdi
    2830:	e8 4d fc ff ff       	callq  2482 <rio_readlineb>
    2835:	48 85 c0             	test   %rax,%rax
    2838:	0f 8e 86 03 00 00    	jle    2bc4 <submitr+0x58b>
    283e:	48 8d 4c 24 2c       	lea    0x2c(%rsp),%rcx
    2843:	48 8d 94 24 50 60 00 	lea    0x6050(%rsp),%rdx
    284a:	00 
    284b:	48 8d bc 24 50 20 00 	lea    0x2050(%rsp),%rdi
    2852:	00 
    2853:	4c 8d 84 24 50 80 00 	lea    0x8050(%rsp),%r8
    285a:	00 
    285b:	48 8d 35 7d 10 00 00 	lea    0x107d(%rip),%rsi        # 38df <trans_char+0xaf>
    2862:	b8 00 00 00 00       	mov    $0x0,%eax
    2867:	e8 d4 e6 ff ff       	callq  f40 <__isoc99_sscanf@plt>
    286c:	48 8d b4 24 50 20 00 	lea    0x2050(%rsp),%rsi
    2873:	00 
    2874:	b9 03 00 00 00       	mov    $0x3,%ecx
    2879:	48 8d 3d 76 10 00 00 	lea    0x1076(%rip),%rdi        # 38f6 <trans_char+0xc6>
    2880:	f3 a6                	repz cmpsb %es:(%rdi),%ds:(%rsi)
    2882:	0f 97 c0             	seta   %al
    2885:	1c 00                	sbb    $0x0,%al
    2887:	84 c0                	test   %al,%al
    2889:	0f 84 b3 03 00 00    	je     2c42 <submitr+0x609>
    288f:	48 8d b4 24 50 20 00 	lea    0x2050(%rsp),%rsi
    2896:	00 
    2897:	48 8d 7c 24 40       	lea    0x40(%rsp),%rdi
    289c:	ba 00 20 00 00       	mov    $0x2000,%edx
    28a1:	e8 dc fb ff ff       	callq  2482 <rio_readlineb>
    28a6:	48 85 c0             	test   %rax,%rax
    28a9:	7f c1                	jg     286c <submitr+0x233>
    28ab:	48 b8 45 72 72 6f 72 	movabs $0x43203a726f727245,%rax
    28b2:	3a 20 43 
    28b5:	48 ba 6c 69 65 6e 74 	movabs $0x6e7520746e65696c,%rdx
    28bc:	20 75 6e 
    28bf:	48 89 45 00          	mov    %rax,0x0(%rbp)
    28c3:	48 89 55 08          	mov    %rdx,0x8(%rbp)
    28c7:	48 b8 61 62 6c 65 20 	movabs $0x206f7420656c6261,%rax
    28ce:	74 6f 20 
    28d1:	48 ba 72 65 61 64 20 	movabs $0x6165682064616572,%rdx
    28d8:	68 65 61 
    28db:	48 89 45 10          	mov    %rax,0x10(%rbp)
    28df:	48 89 55 18          	mov    %rdx,0x18(%rbp)
    28e3:	48 b8 64 65 72 73 20 	movabs $0x6f72662073726564,%rax
    28ea:	66 72 6f 
    28ed:	48 ba 6d 20 74 68 65 	movabs $0x657220656874206d,%rdx
    28f4:	20 72 65 
    28f7:	48 89 45 20          	mov    %rax,0x20(%rbp)
    28fb:	48 89 55 28          	mov    %rdx,0x28(%rbp)
    28ff:	48 b8 73 75 6c 74 20 	movabs $0x72657320746c7573,%rax
    2906:	73 65 72 
    2909:	48 89 45 30          	mov    %rax,0x30(%rbp)
    290d:	c7 45 38 76 65 72 00 	movl   $0x726576,0x38(%rbp)
    2914:	89 df                	mov    %ebx,%edi
    2916:	e8 85 e5 ff ff       	callq  ea0 <close@plt>
    291b:	b8 ff ff ff ff       	mov    $0xffffffff,%eax
    2920:	48 8b 9c 24 58 a0 00 	mov    0xa058(%rsp),%rbx
    2927:	00 
    2928:	64 48 33 1c 25 28 00 	xor    %fs:0x28,%rbx
    292f:	00 00 
    2931:	0f 85 7e 04 00 00    	jne    2db5 <submitr+0x77c>
    2937:	48 81 c4 68 a0 00 00 	add    $0xa068,%rsp
    293e:	5b                   	pop    %rbx
    293f:	5d                   	pop    %rbp
    2940:	41 5c                	pop    %r12
    2942:	41 5d                	pop    %r13
    2944:	41 5e                	pop    %r14
    2946:	41 5f                	pop    %r15
    2948:	c3                   	retq   
    2949:	48 b8 45 72 72 6f 72 	movabs $0x43203a726f727245,%rax
    2950:	3a 20 43 
    2953:	48 ba 6c 69 65 6e 74 	movabs $0x6e7520746e65696c,%rdx
    295a:	20 75 6e 
    295d:	48 89 45 00          	mov    %rax,0x0(%rbp)
    2961:	48 89 55 08          	mov    %rdx,0x8(%rbp)
    2965:	48 b8 61 62 6c 65 20 	movabs $0x206f7420656c6261,%rax
    296c:	74 6f 20 
    296f:	48 ba 63 72 65 61 74 	movabs $0x7320657461657263,%rdx
    2976:	65 20 73 
    2979:	48 89 45 10          	mov    %rax,0x10(%rbp)
    297d:	48 89 55 18          	mov    %rdx,0x18(%rbp)
    2981:	c7 45 20 6f 63 6b 65 	movl   $0x656b636f,0x20(%rbp)
    2988:	66 c7 45 24 74 00    	movw   $0x74,0x24(%rbp)
    298e:	b8 ff ff ff ff       	mov    $0xffffffff,%eax
    2993:	eb 8b                	jmp    2920 <submitr+0x2e7>
    2995:	48 b8 45 72 72 6f 72 	movabs $0x44203a726f727245,%rax
    299c:	3a 20 44 
    299f:	48 ba 4e 53 20 69 73 	movabs $0x6e7520736920534e,%rdx
    29a6:	20 75 6e 
    29a9:	48 89 45 00          	mov    %rax,0x0(%rbp)
    29ad:	48 89 55 08          	mov    %rdx,0x8(%rbp)
    29b1:	48 b8 61 62 6c 65 20 	movabs $0x206f7420656c6261,%rax
    29b8:	74 6f 20 
    29bb:	48 ba 72 65 73 6f 6c 	movabs $0x2065766c6f736572,%rdx
    29c2:	76 65 20 
    29c5:	48 89 45 10          	mov    %rax,0x10(%rbp)
    29c9:	48 89 55 18          	mov    %rdx,0x18(%rbp)
    29cd:	48 b8 73 65 72 76 65 	movabs $0x6120726576726573,%rax
    29d4:	72 20 61 
    29d7:	48 89 45 20          	mov    %rax,0x20(%rbp)
    29db:	c7 45 28 64 64 72 65 	movl   $0x65726464,0x28(%rbp)
    29e2:	66 c7 45 2c 73 73    	movw   $0x7373,0x2c(%rbp)
    29e8:	c6 45 2e 00          	movb   $0x0,0x2e(%rbp)
    29ec:	89 df                	mov    %ebx,%edi
    29ee:	e8 ad e4 ff ff       	callq  ea0 <close@plt>
    29f3:	b8 ff ff ff ff       	mov    $0xffffffff,%eax
    29f8:	e9 23 ff ff ff       	jmpq   2920 <submitr+0x2e7>
    29fd:	48 b8 45 72 72 6f 72 	movabs $0x55203a726f727245,%rax
    2a04:	3a 20 55 
    2a07:	48 ba 6e 61 62 6c 65 	movabs $0x6f7420656c62616e,%rdx
    2a0e:	20 74 6f 
    2a11:	48 89 45 00          	mov    %rax,0x0(%rbp)
    2a15:	48 89 55 08          	mov    %rdx,0x8(%rbp)
    2a19:	48 b8 20 63 6f 6e 6e 	movabs $0x7463656e6e6f6320,%rax
    2a20:	65 63 74 
    2a23:	48 ba 20 74 6f 20 74 	movabs $0x20656874206f7420,%rdx
    2a2a:	68 65 20 
    2a2d:	48 89 45 10          	mov    %rax,0x10(%rbp)
    2a31:	48 89 55 18          	mov    %rdx,0x18(%rbp)
    2a35:	c7 45 20 73 65 72 76 	movl   $0x76726573,0x20(%rbp)
    2a3c:	66 c7 45 24 65 72    	movw   $0x7265,0x24(%rbp)
    2a42:	c6 45 26 00          	movb   $0x0,0x26(%rbp)
    2a46:	89 df                	mov    %ebx,%edi
    2a48:	e8 53 e4 ff ff       	callq  ea0 <close@plt>
    2a4d:	b8 ff ff ff ff       	mov    $0xffffffff,%eax
    2a52:	e9 c9 fe ff ff       	jmpq   2920 <submitr+0x2e7>
    2a57:	48 b8 45 72 72 6f 72 	movabs $0x52203a726f727245,%rax
    2a5e:	3a 20 52 
    2a61:	48 ba 65 73 75 6c 74 	movabs $0x747320746c757365,%rdx
    2a68:	20 73 74 
    2a6b:	48 89 45 00          	mov    %rax,0x0(%rbp)
    2a6f:	48 89 55 08          	mov    %rdx,0x8(%rbp)
    2a73:	48 b8 72 69 6e 67 20 	movabs $0x6f6f7420676e6972,%rax
    2a7a:	74 6f 6f 
    2a7d:	48 ba 20 6c 61 72 67 	movabs $0x202e656772616c20,%rdx
    2a84:	65 2e 20 
    2a87:	48 89 45 10          	mov    %rax,0x10(%rbp)
    2a8b:	48 89 55 18          	mov    %rdx,0x18(%rbp)
    2a8f:	48 b8 49 6e 63 72 65 	movabs $0x6573616572636e49,%rax
    2a96:	61 73 65 
    2a99:	48 ba 20 53 55 42 4d 	movabs $0x5254494d42555320,%rdx
    2aa0:	49 54 52 
    2aa3:	48 89 45 20          	mov    %rax,0x20(%rbp)
    2aa7:	48 89 55 28          	mov    %rdx,0x28(%rbp)
    2aab:	48 b8 5f 4d 41 58 42 	movabs $0x46554258414d5f,%rax
    2ab2:	55 46 00 
    2ab5:	48 89 45 30          	mov    %rax,0x30(%rbp)
    2ab9:	89 df                	mov    %ebx,%edi
    2abb:	e8 e0 e3 ff ff       	callq  ea0 <close@plt>
    2ac0:	b8 ff ff ff ff       	mov    $0xffffffff,%eax
    2ac5:	e9 56 fe ff ff       	jmpq   2920 <submitr+0x2e7>
    2aca:	48 b8 45 72 72 6f 72 	movabs $0x52203a726f727245,%rax
    2ad1:	3a 20 52 
    2ad4:	48 ba 65 73 75 6c 74 	movabs $0x747320746c757365,%rdx
    2adb:	20 73 74 
    2ade:	48 89 45 00          	mov    %rax,0x0(%rbp)
    2ae2:	48 89 55 08          	mov    %rdx,0x8(%rbp)
    2ae6:	48 b8 72 69 6e 67 20 	movabs $0x6e6f6320676e6972,%rax
    2aed:	63 6f 6e 
    2af0:	48 ba 74 61 69 6e 73 	movabs $0x6e6120736e696174,%rdx
    2af7:	20 61 6e 
    2afa:	48 89 45 10          	mov    %rax,0x10(%rbp)
    2afe:	48 89 55 18          	mov    %rdx,0x18(%rbp)
    2b02:	48 b8 20 69 6c 6c 65 	movabs $0x6c6167656c6c6920,%rax
    2b09:	67 61 6c 
    2b0c:	48 ba 20 6f 72 20 75 	movabs $0x72706e7520726f20,%rdx
    2b13:	6e 70 72 
    2b16:	48 89 45 20          	mov    %rax,0x20(%rbp)
    2b1a:	48 89 55 28          	mov    %rdx,0x28(%rbp)
    2b1e:	48 b8 69 6e 74 61 62 	movabs $0x20656c6261746e69,%rax
    2b25:	6c 65 20 
    2b28:	48 ba 63 68 61 72 61 	movabs $0x6574636172616863,%rdx
    2b2f:	63 74 65 
    2b32:	48 89 45 30          	mov    %rax,0x30(%rbp)
    2b36:	48 89 55 38          	mov    %rdx,0x38(%rbp)
    2b3a:	66 c7 45 40 72 2e    	movw   $0x2e72,0x40(%rbp)
    2b40:	c6 45 42 00          	movb   $0x0,0x42(%rbp)
    2b44:	89 df                	mov    %ebx,%edi
    2b46:	e8 55 e3 ff ff       	callq  ea0 <close@plt>
    2b4b:	b8 ff ff ff ff       	mov    $0xffffffff,%eax
    2b50:	e9 cb fd ff ff       	jmpq   2920 <submitr+0x2e7>
    2b55:	48 b8 45 72 72 6f 72 	movabs $0x43203a726f727245,%rax
    2b5c:	3a 20 43 
    2b5f:	48 ba 6c 69 65 6e 74 	movabs $0x6e7520746e65696c,%rdx
    2b66:	20 75 6e 
    2b69:	48 89 45 00          	mov    %rax,0x0(%rbp)
    2b6d:	48 89 55 08          	mov    %rdx,0x8(%rbp)
    2b71:	48 b8 61 62 6c 65 20 	movabs $0x206f7420656c6261,%rax
    2b78:	74 6f 20 
    2b7b:	48 ba 77 72 69 74 65 	movabs $0x6f74206574697277,%rdx
    2b82:	20 74 6f 
    2b85:	48 89 45 10          	mov    %rax,0x10(%rbp)
    2b89:	48 89 55 18          	mov    %rdx,0x18(%rbp)
    2b8d:	48 b8 20 74 68 65 20 	movabs $0x7365722065687420,%rax
    2b94:	72 65 73 
    2b97:	48 ba 75 6c 74 20 73 	movabs $0x7672657320746c75,%rdx
    2b9e:	65 72 76 
    2ba1:	48 89 45 20          	mov    %rax,0x20(%rbp)
    2ba5:	48 89 55 28          	mov    %rdx,0x28(%rbp)
    2ba9:	66 c7 45 30 65 72    	movw   $0x7265,0x30(%rbp)
    2baf:	c6 45 32 00          	movb   $0x0,0x32(%rbp)
    2bb3:	89 df                	mov    %ebx,%edi
    2bb5:	e8 e6 e2 ff ff       	callq  ea0 <close@plt>
    2bba:	b8 ff ff ff ff       	mov    $0xffffffff,%eax
    2bbf:	e9 5c fd ff ff       	jmpq   2920 <submitr+0x2e7>
    2bc4:	48 b8 45 72 72 6f 72 	movabs $0x43203a726f727245,%rax
    2bcb:	3a 20 43 
    2bce:	48 ba 6c 69 65 6e 74 	movabs $0x6e7520746e65696c,%rdx
    2bd5:	20 75 6e 
    2bd8:	48 89 45 00          	mov    %rax,0x0(%rbp)
    2bdc:	48 89 55 08          	mov    %rdx,0x8(%rbp)
    2be0:	48 b8 61 62 6c 65 20 	movabs $0x206f7420656c6261,%rax
    2be7:	74 6f 20 
    2bea:	48 ba 72 65 61 64 20 	movabs $0x7269662064616572,%rdx
    2bf1:	66 69 72 
    2bf4:	48 89 45 10          	mov    %rax,0x10(%rbp)
    2bf8:	48 89 55 18          	mov    %rdx,0x18(%rbp)
    2bfc:	48 b8 73 74 20 68 65 	movabs $0x6564616568207473,%rax
    2c03:	61 64 65 
    2c06:	48 ba 72 20 66 72 6f 	movabs $0x72206d6f72662072,%rdx
    2c0d:	6d 20 72 
    2c10:	48 89 45 20          	mov    %rax,0x20(%rbp)
    2c14:	48 89 55 28          	mov    %rdx,0x28(%rbp)
    2c18:	48 b8 65 73 75 6c 74 	movabs $0x657320746c757365,%rax
    2c1f:	20 73 65 
    2c22:	48 89 45 30          	mov    %rax,0x30(%rbp)
    2c26:	c7 45 38 72 76 65 72 	movl   $0x72657672,0x38(%rbp)
    2c2d:	c6 45 3c 00          	movb   $0x0,0x3c(%rbp)
    2c31:	89 df                	mov    %ebx,%edi
    2c33:	e8 68 e2 ff ff       	callq  ea0 <close@plt>
    2c38:	b8 ff ff ff ff       	mov    $0xffffffff,%eax
    2c3d:	e9 de fc ff ff       	jmpq   2920 <submitr+0x2e7>
    2c42:	48 8d b4 24 50 20 00 	lea    0x2050(%rsp),%rsi
    2c49:	00 
    2c4a:	48 8d 7c 24 40       	lea    0x40(%rsp),%rdi
    2c4f:	ba 00 20 00 00       	mov    $0x2000,%edx
    2c54:	e8 29 f8 ff ff       	callq  2482 <rio_readlineb>
    2c59:	48 85 c0             	test   %rax,%rax
    2c5c:	0f 8e 96 00 00 00    	jle    2cf8 <submitr+0x6bf>
    2c62:	44 8b 44 24 2c       	mov    0x2c(%rsp),%r8d
    2c67:	41 81 f8 c8 00 00 00 	cmp    $0xc8,%r8d
    2c6e:	0f 85 08 01 00 00    	jne    2d7c <submitr+0x743>
    2c74:	48 8d b4 24 50 20 00 	lea    0x2050(%rsp),%rsi
    2c7b:	00 
    2c7c:	48 89 ef             	mov    %rbp,%rdi
    2c7f:	e8 ac e1 ff ff       	callq  e30 <strcpy@plt>
    2c84:	89 df                	mov    %ebx,%edi
    2c86:	e8 15 e2 ff ff       	callq  ea0 <close@plt>
    2c8b:	b9 04 00 00 00       	mov    $0x4,%ecx
    2c90:	48 8d 3d 59 0c 00 00 	lea    0xc59(%rip),%rdi        # 38f0 <trans_char+0xc0>
    2c97:	48 89 ee             	mov    %rbp,%rsi
    2c9a:	f3 a6                	repz cmpsb %es:(%rdi),%ds:(%rsi)
    2c9c:	0f 97 c0             	seta   %al
    2c9f:	1c 00                	sbb    $0x0,%al
    2ca1:	0f be c0             	movsbl %al,%eax
    2ca4:	85 c0                	test   %eax,%eax
    2ca6:	0f 84 74 fc ff ff    	je     2920 <submitr+0x2e7>
    2cac:	b9 05 00 00 00       	mov    $0x5,%ecx
    2cb1:	48 8d 3d 3c 0c 00 00 	lea    0xc3c(%rip),%rdi        # 38f4 <trans_char+0xc4>
    2cb8:	48 89 ee             	mov    %rbp,%rsi
    2cbb:	f3 a6                	repz cmpsb %es:(%rdi),%ds:(%rsi)
    2cbd:	0f 97 c0             	seta   %al
    2cc0:	1c 00                	sbb    $0x0,%al
    2cc2:	0f be c0             	movsbl %al,%eax
    2cc5:	85 c0                	test   %eax,%eax
    2cc7:	0f 84 53 fc ff ff    	je     2920 <submitr+0x2e7>
    2ccd:	b9 03 00 00 00       	mov    $0x3,%ecx
    2cd2:	48 8d 3d 20 0c 00 00 	lea    0xc20(%rip),%rdi        # 38f9 <trans_char+0xc9>
    2cd9:	48 89 ee             	mov    %rbp,%rsi
    2cdc:	f3 a6                	repz cmpsb %es:(%rdi),%ds:(%rsi)
    2cde:	0f 97 c0             	seta   %al
    2ce1:	1c 00                	sbb    $0x0,%al
    2ce3:	0f be c0             	movsbl %al,%eax
    2ce6:	85 c0                	test   %eax,%eax
    2ce8:	0f 84 32 fc ff ff    	je     2920 <submitr+0x2e7>
    2cee:	b8 ff ff ff ff       	mov    $0xffffffff,%eax
    2cf3:	e9 28 fc ff ff       	jmpq   2920 <submitr+0x2e7>
    2cf8:	48 b8 45 72 72 6f 72 	movabs $0x43203a726f727245,%rax
    2cff:	3a 20 43 
    2d02:	48 ba 6c 69 65 6e 74 	movabs $0x6e7520746e65696c,%rdx
    2d09:	20 75 6e 
    2d0c:	48 89 45 00          	mov    %rax,0x0(%rbp)
    2d10:	48 89 55 08          	mov    %rdx,0x8(%rbp)
    2d14:	48 b8 61 62 6c 65 20 	movabs $0x206f7420656c6261,%rax
    2d1b:	74 6f 20 
    2d1e:	48 ba 72 65 61 64 20 	movabs $0x6174732064616572,%rdx
    2d25:	73 74 61 
    2d28:	48 89 45 10          	mov    %rax,0x10(%rbp)
    2d2c:	48 89 55 18          	mov    %rdx,0x18(%rbp)
    2d30:	48 b8 74 75 73 20 6d 	movabs $0x7373656d20737574,%rax
    2d37:	65 73 73 
    2d3a:	48 ba 61 67 65 20 66 	movabs $0x6d6f726620656761,%rdx
    2d41:	72 6f 6d 
    2d44:	48 89 45 20          	mov    %rax,0x20(%rbp)
    2d48:	48 89 55 28          	mov    %rdx,0x28(%rbp)
    2d4c:	48 b8 20 72 65 73 75 	movabs $0x20746c7573657220,%rax
    2d53:	6c 74 20 
    2d56:	48 89 45 30          	mov    %rax,0x30(%rbp)
    2d5a:	c7 45 38 73 65 72 76 	movl   $0x76726573,0x38(%rbp)
    2d61:	66 c7 45 3c 65 72    	movw   $0x7265,0x3c(%rbp)
    2d67:	c6 45 3e 00          	movb   $0x0,0x3e(%rbp)
    2d6b:	89 df                	mov    %ebx,%edi
    2d6d:	e8 2e e1 ff ff       	callq  ea0 <close@plt>
    2d72:	b8 ff ff ff ff       	mov    $0xffffffff,%eax
    2d77:	e9 a4 fb ff ff       	jmpq   2920 <submitr+0x2e7>
    2d7c:	4c 8d 8c 24 50 80 00 	lea    0x8050(%rsp),%r9
    2d83:	00 
    2d84:	48 8d 0d 1d 0b 00 00 	lea    0xb1d(%rip),%rcx        # 38a8 <trans_char+0x78>
    2d8b:	48 c7 c2 ff ff ff ff 	mov    $0xffffffffffffffff,%rdx
    2d92:	be 01 00 00 00       	mov    $0x1,%esi
    2d97:	48 89 ef             	mov    %rbp,%rdi
    2d9a:	b8 00 00 00 00       	mov    $0x0,%eax
    2d9f:	e8 3c e2 ff ff       	callq  fe0 <__sprintf_chk@plt>
    2da4:	89 df                	mov    %ebx,%edi
    2da6:	e8 f5 e0 ff ff       	callq  ea0 <close@plt>
    2dab:	b8 ff ff ff ff       	mov    $0xffffffff,%eax
    2db0:	e9 6b fb ff ff       	jmpq   2920 <submitr+0x2e7>
    2db5:	e8 a6 e0 ff ff       	callq  e60 <__stack_chk_fail@plt>

0000000000002dba <init_timeout>:
    2dba:	85 ff                	test   %edi,%edi
    2dbc:	74 28                	je     2de6 <init_timeout+0x2c>
    2dbe:	53                   	push   %rbx
    2dbf:	89 fb                	mov    %edi,%ebx
    2dc1:	85 ff                	test   %edi,%edi
    2dc3:	78 1a                	js     2ddf <init_timeout+0x25>
    2dc5:	48 8d 35 9d f5 ff ff 	lea    -0xa63(%rip),%rsi        # 2369 <sigalrm_handler>
    2dcc:	bf 0e 00 00 00       	mov    $0xe,%edi
    2dd1:	e8 ea e0 ff ff       	callq  ec0 <signal@plt>
    2dd6:	89 df                	mov    %ebx,%edi
    2dd8:	e8 b3 e0 ff ff       	callq  e90 <alarm@plt>
    2ddd:	5b                   	pop    %rbx
    2dde:	c3                   	retq   
    2ddf:	bb 00 00 00 00       	mov    $0x0,%ebx
    2de4:	eb df                	jmp    2dc5 <init_timeout+0xb>
    2de6:	f3 c3                	repz retq 

0000000000002de8 <init_driver>:
    2de8:	41 54                	push   %r12
    2dea:	55                   	push   %rbp
    2deb:	53                   	push   %rbx
    2dec:	48 83 ec 20          	sub    $0x20,%rsp
    2df0:	49 89 fc             	mov    %rdi,%r12
    2df3:	64 48 8b 04 25 28 00 	mov    %fs:0x28,%rax
    2dfa:	00 00 
    2dfc:	48 89 44 24 18       	mov    %rax,0x18(%rsp)
    2e01:	31 c0                	xor    %eax,%eax
    2e03:	be 01 00 00 00       	mov    $0x1,%esi
    2e08:	bf 0d 00 00 00       	mov    $0xd,%edi
    2e0d:	e8 ae e0 ff ff       	callq  ec0 <signal@plt>
    2e12:	be 01 00 00 00       	mov    $0x1,%esi
    2e17:	bf 1d 00 00 00       	mov    $0x1d,%edi
    2e1c:	e8 9f e0 ff ff       	callq  ec0 <signal@plt>
    2e21:	be 01 00 00 00       	mov    $0x1,%esi
    2e26:	bf 1d 00 00 00       	mov    $0x1d,%edi
    2e2b:	e8 90 e0 ff ff       	callq  ec0 <signal@plt>
    2e30:	ba 00 00 00 00       	mov    $0x0,%edx
    2e35:	be 01 00 00 00       	mov    $0x1,%esi
    2e3a:	bf 02 00 00 00       	mov    $0x2,%edi
    2e3f:	e8 ac e1 ff ff       	callq  ff0 <socket@plt>
    2e44:	85 c0                	test   %eax,%eax
    2e46:	0f 88 a3 00 00 00    	js     2eef <init_driver+0x107>
    2e4c:	89 c3                	mov    %eax,%ebx
    2e4e:	48 8d 3d d9 05 00 00 	lea    0x5d9(%rip),%rdi        # 342e <_IO_stdin_used+0x2ce>
    2e55:	e8 76 e0 ff ff       	callq  ed0 <gethostbyname@plt>
    2e5a:	48 85 c0             	test   %rax,%rax
    2e5d:	0f 84 df 00 00 00    	je     2f42 <init_driver+0x15a>
    2e63:	48 89 e5             	mov    %rsp,%rbp
    2e66:	48 c7 44 24 02 00 00 	movq   $0x0,0x2(%rsp)
    2e6d:	00 00 
    2e6f:	c7 45 0a 00 00 00 00 	movl   $0x0,0xa(%rbp)
    2e76:	66 c7 45 0e 00 00    	movw   $0x0,0xe(%rbp)
    2e7c:	66 c7 04 24 02 00    	movw   $0x2,(%rsp)
    2e82:	48 63 50 14          	movslq 0x14(%rax),%rdx
    2e86:	48 8b 40 18          	mov    0x18(%rax),%rax
    2e8a:	48 8b 30             	mov    (%rax),%rsi
    2e8d:	48 8d 7d 04          	lea    0x4(%rbp),%rdi
    2e91:	b9 0c 00 00 00       	mov    $0xc,%ecx
    2e96:	e8 45 e0 ff ff       	callq  ee0 <__memmove_chk@plt>
    2e9b:	66 c7 44 24 02 0a 8e 	movw   $0x8e0a,0x2(%rsp)
    2ea2:	ba 10 00 00 00       	mov    $0x10,%edx
    2ea7:	48 89 ee             	mov    %rbp,%rsi
    2eaa:	89 df                	mov    %ebx,%edi
    2eac:	e8 0f e1 ff ff       	callq  fc0 <connect@plt>
    2eb1:	85 c0                	test   %eax,%eax
    2eb3:	0f 88 fb 00 00 00    	js     2fb4 <init_driver+0x1cc>
    2eb9:	89 df                	mov    %ebx,%edi
    2ebb:	e8 e0 df ff ff       	callq  ea0 <close@plt>
    2ec0:	66 41 c7 04 24 4f 4b 	movw   $0x4b4f,(%r12)
    2ec7:	41 c6 44 24 02 00    	movb   $0x0,0x2(%r12)
    2ecd:	b8 00 00 00 00       	mov    $0x0,%eax
    2ed2:	48 8b 4c 24 18       	mov    0x18(%rsp),%rcx
    2ed7:	64 48 33 0c 25 28 00 	xor    %fs:0x28,%rcx
    2ede:	00 00 
    2ee0:	0f 85 28 01 00 00    	jne    300e <init_driver+0x226>
    2ee6:	48 83 c4 20          	add    $0x20,%rsp
    2eea:	5b                   	pop    %rbx
    2eeb:	5d                   	pop    %rbp
    2eec:	41 5c                	pop    %r12
    2eee:	c3                   	retq   
    2eef:	48 b8 45 72 72 6f 72 	movabs $0x43203a726f727245,%rax
    2ef6:	3a 20 43 
    2ef9:	48 ba 6c 69 65 6e 74 	movabs $0x6e7520746e65696c,%rdx
    2f00:	20 75 6e 
    2f03:	49 89 04 24          	mov    %rax,(%r12)
    2f07:	49 89 54 24 08       	mov    %rdx,0x8(%r12)
    2f0c:	48 b8 61 62 6c 65 20 	movabs $0x206f7420656c6261,%rax
    2f13:	74 6f 20 
    2f16:	48 ba 63 72 65 61 74 	movabs $0x7320657461657263,%rdx
    2f1d:	65 20 73 
    2f20:	49 89 44 24 10       	mov    %rax,0x10(%r12)
    2f25:	49 89 54 24 18       	mov    %rdx,0x18(%r12)
    2f2a:	41 c7 44 24 20 6f 63 	movl   $0x656b636f,0x20(%r12)
    2f31:	6b 65 
    2f33:	66 41 c7 44 24 24 74 	movw   $0x74,0x24(%r12)
    2f3a:	00 
    2f3b:	b8 ff ff ff ff       	mov    $0xffffffff,%eax
    2f40:	eb 90                	jmp    2ed2 <init_driver+0xea>
    2f42:	48 b8 45 72 72 6f 72 	movabs $0x44203a726f727245,%rax
    2f49:	3a 20 44 
    2f4c:	48 ba 4e 53 20 69 73 	movabs $0x6e7520736920534e,%rdx
    2f53:	20 75 6e 
    2f56:	49 89 04 24          	mov    %rax,(%r12)
    2f5a:	49 89 54 24 08       	mov    %rdx,0x8(%r12)
    2f5f:	48 b8 61 62 6c 65 20 	movabs $0x206f7420656c6261,%rax
    2f66:	74 6f 20 
    2f69:	48 ba 72 65 73 6f 6c 	movabs $0x2065766c6f736572,%rdx
    2f70:	76 65 20 
    2f73:	49 89 44 24 10       	mov    %rax,0x10(%r12)
    2f78:	49 89 54 24 18       	mov    %rdx,0x18(%r12)
    2f7d:	48 b8 73 65 72 76 65 	movabs $0x6120726576726573,%rax
    2f84:	72 20 61 
    2f87:	49 89 44 24 20       	mov    %rax,0x20(%r12)
    2f8c:	41 c7 44 24 28 64 64 	movl   $0x65726464,0x28(%r12)
    2f93:	72 65 
    2f95:	66 41 c7 44 24 2c 73 	movw   $0x7373,0x2c(%r12)
    2f9c:	73 
    2f9d:	41 c6 44 24 2e 00    	movb   $0x0,0x2e(%r12)
    2fa3:	89 df                	mov    %ebx,%edi
    2fa5:	e8 f6 de ff ff       	callq  ea0 <close@plt>
    2faa:	b8 ff ff ff ff       	mov    $0xffffffff,%eax
    2faf:	e9 1e ff ff ff       	jmpq   2ed2 <init_driver+0xea>
    2fb4:	48 b8 45 72 72 6f 72 	movabs $0x55203a726f727245,%rax
    2fbb:	3a 20 55 
    2fbe:	48 ba 6e 61 62 6c 65 	movabs $0x6f7420656c62616e,%rdx
    2fc5:	20 74 6f 
    2fc8:	49 89 04 24          	mov    %rax,(%r12)
    2fcc:	49 89 54 24 08       	mov    %rdx,0x8(%r12)
    2fd1:	48 b8 20 63 6f 6e 6e 	movabs $0x7463656e6e6f6320,%rax
    2fd8:	65 63 74 
    2fdb:	48 ba 20 74 6f 20 73 	movabs $0x76726573206f7420,%rdx
    2fe2:	65 72 76 
    2fe5:	49 89 44 24 10       	mov    %rax,0x10(%r12)
    2fea:	49 89 54 24 18       	mov    %rdx,0x18(%r12)
    2fef:	66 41 c7 44 24 20 65 	movw   $0x7265,0x20(%r12)
    2ff6:	72 
    2ff7:	41 c6 44 24 22 00    	movb   $0x0,0x22(%r12)
    2ffd:	89 df                	mov    %ebx,%edi
    2fff:	e8 9c de ff ff       	callq  ea0 <close@plt>
    3004:	b8 ff ff ff ff       	mov    $0xffffffff,%eax
    3009:	e9 c4 fe ff ff       	jmpq   2ed2 <init_driver+0xea>
    300e:	e8 4d de ff ff       	callq  e60 <__stack_chk_fail@plt>

0000000000003013 <driver_post>:
    3013:	53                   	push   %rbx
    3014:	4c 89 cb             	mov    %r9,%rbx
    3017:	45 85 c0             	test   %r8d,%r8d
    301a:	75 18                	jne    3034 <driver_post+0x21>
    301c:	48 85 ff             	test   %rdi,%rdi
    301f:	74 05                	je     3026 <driver_post+0x13>
    3021:	80 3f 00             	cmpb   $0x0,(%rdi)
    3024:	75 37                	jne    305d <driver_post+0x4a>
    3026:	66 c7 03 4f 4b       	movw   $0x4b4f,(%rbx)
    302b:	c6 43 02 00          	movb   $0x0,0x2(%rbx)
    302f:	44 89 c0             	mov    %r8d,%eax
    3032:	5b                   	pop    %rbx
    3033:	c3                   	retq   
    3034:	48 89 ca             	mov    %rcx,%rdx
    3037:	48 8d 35 be 08 00 00 	lea    0x8be(%rip),%rsi        # 38fc <trans_char+0xcc>
    303e:	bf 01 00 00 00       	mov    $0x1,%edi
    3043:	b8 00 00 00 00       	mov    $0x0,%eax
    3048:	e8 13 df ff ff       	callq  f60 <__printf_chk@plt>
    304d:	66 c7 03 4f 4b       	movw   $0x4b4f,(%rbx)
    3052:	c6 43 02 00          	movb   $0x0,0x2(%rbx)
    3056:	b8 00 00 00 00       	mov    $0x0,%eax
    305b:	eb d5                	jmp    3032 <driver_post+0x1f>
    305d:	48 83 ec 08          	sub    $0x8,%rsp
    3061:	41 51                	push   %r9
    3063:	49 89 c9             	mov    %rcx,%r9
    3066:	49 89 d0             	mov    %rdx,%r8
    3069:	48 89 f9             	mov    %rdi,%rcx
    306c:	48 89 f2             	mov    %rsi,%rdx
    306f:	be 8e 0a 00 00       	mov    $0xa8e,%esi
    3074:	48 8d 3d b3 03 00 00 	lea    0x3b3(%rip),%rdi        # 342e <_IO_stdin_used+0x2ce>
    307b:	e8 b9 f5 ff ff       	callq  2639 <submitr>
    3080:	48 83 c4 10          	add    $0x10,%rsp
    3084:	eb ac                	jmp    3032 <driver_post+0x1f>

0000000000003086 <check>:
    3086:	89 f8                	mov    %edi,%eax
    3088:	c1 e8 1c             	shr    $0x1c,%eax
    308b:	85 c0                	test   %eax,%eax
    308d:	74 1d                	je     30ac <check+0x26>
    308f:	b9 00 00 00 00       	mov    $0x0,%ecx
    3094:	83 f9 1f             	cmp    $0x1f,%ecx
    3097:	7f 0d                	jg     30a6 <check+0x20>
    3099:	89 f8                	mov    %edi,%eax
    309b:	d3 e8                	shr    %cl,%eax
    309d:	3c 0a                	cmp    $0xa,%al
    309f:	74 11                	je     30b2 <check+0x2c>
    30a1:	83 c1 08             	add    $0x8,%ecx
    30a4:	eb ee                	jmp    3094 <check+0xe>
    30a6:	b8 01 00 00 00       	mov    $0x1,%eax
    30ab:	c3                   	retq   
    30ac:	b8 00 00 00 00       	mov    $0x0,%eax
    30b1:	c3                   	retq   
    30b2:	b8 00 00 00 00       	mov    $0x0,%eax
    30b7:	c3                   	retq   

00000000000030b8 <gencookie>:
    30b8:	53                   	push   %rbx
    30b9:	83 c7 01             	add    $0x1,%edi
    30bc:	e8 4f dd ff ff       	callq  e10 <srandom@plt>
    30c1:	e8 5a de ff ff       	callq  f20 <random@plt>
    30c6:	89 c3                	mov    %eax,%ebx
    30c8:	89 c7                	mov    %eax,%edi
    30ca:	e8 b7 ff ff ff       	callq  3086 <check>
    30cf:	85 c0                	test   %eax,%eax
    30d1:	74 ee                	je     30c1 <gencookie+0x9>
    30d3:	89 d8                	mov    %ebx,%eax
    30d5:	5b                   	pop    %rbx
    30d6:	c3                   	retq   
    30d7:	66 0f 1f 84 00 00 00 	nopw   0x0(%rax,%rax,1)
    30de:	00 00 

00000000000030e0 <__libc_csu_init>:
    30e0:	41 57                	push   %r15
    30e2:	41 56                	push   %r14
    30e4:	49 89 d7             	mov    %rdx,%r15
    30e7:	41 55                	push   %r13
    30e9:	41 54                	push   %r12
    30eb:	4c 8d 25 c6 1b 20 00 	lea    0x201bc6(%rip),%r12        # 204cb8 <__frame_dummy_init_array_entry>
    30f2:	55                   	push   %rbp
    30f3:	48 8d 2d c6 1b 20 00 	lea    0x201bc6(%rip),%rbp        # 204cc0 <__init_array_end>
    30fa:	53                   	push   %rbx
    30fb:	41 89 fd             	mov    %edi,%r13d
    30fe:	49 89 f6             	mov    %rsi,%r14
    3101:	4c 29 e5             	sub    %r12,%rbp
    3104:	48 83 ec 08          	sub    $0x8,%rsp
    3108:	48 c1 fd 03          	sar    $0x3,%rbp
    310c:	e8 b7 dc ff ff       	callq  dc8 <_init>
    3111:	48 85 ed             	test   %rbp,%rbp
    3114:	74 20                	je     3136 <__libc_csu_init+0x56>
    3116:	31 db                	xor    %ebx,%ebx
    3118:	0f 1f 84 00 00 00 00 	nopl   0x0(%rax,%rax,1)
    311f:	00 
    3120:	4c 89 fa             	mov    %r15,%rdx
    3123:	4c 89 f6             	mov    %r14,%rsi
    3126:	44 89 ef             	mov    %r13d,%edi
    3129:	41 ff 14 dc          	callq  *(%r12,%rbx,8)
    312d:	48 83 c3 01          	add    $0x1,%rbx
    3131:	48 39 dd             	cmp    %rbx,%rbp
    3134:	75 ea                	jne    3120 <__libc_csu_init+0x40>
    3136:	48 83 c4 08          	add    $0x8,%rsp
    313a:	5b                   	pop    %rbx
    313b:	5d                   	pop    %rbp
    313c:	41 5c                	pop    %r12
    313e:	41 5d                	pop    %r13
    3140:	41 5e                	pop    %r14
    3142:	41 5f                	pop    %r15
    3144:	c3                   	retq   
    3145:	90                   	nop
    3146:	66 2e 0f 1f 84 00 00 	nopw   %cs:0x0(%rax,%rax,1)
    314d:	00 00 00 

0000000000003150 <__libc_csu_fini>:
    3150:	f3 c3                	repz retq 

Disassembly of section .fini:

0000000000003154 <_fini>:
    3154:	48 83 ec 08          	sub    $0x8,%rsp
    3158:	48 83 c4 08          	add    $0x8,%rsp
    315c:	c3                   	retq   
